
elfs/basic.elf:     file format elf32-littleriscv

Sections:
Idx Name          Size      VMA       LMA       File off  Algn
  0 .text         00001cd4  00002000  00002000  00001000  2**2
                  CONTENTS, ALLOC, LOAD, READONLY, CODE
  1 .data         00000014  00003cd4  00003cd4  00002cd4  2**2
                  CONTENTS, ALLOC, LOAD, DATA
  2 .bss          00001020  00003ce8  00003ce8  00002ce8  2**2
                  ALLOC
  3 .debug_line   00000d56  00000000  00000000  00002ce8  2**0
                  CONTENTS, READONLY, DEBUGGING, OCTETS
  4 .debug_info   00001928  00000000  00000000  00003a3e  2**0
                  CONTENTS, READONLY, DEBUGGING, OCTETS
  5 .debug_abbrev 0000074a  00000000  00000000  00005366  2**0
                  CONTENTS, READONLY, DEBUGGING, OCTETS
  6 .debug_aranges 000000e0  00000000  00000000  00005ab0  2**3
                  CONTENTS, READONLY, DEBUGGING, OCTETS
  7 .debug_str    00000773  00000000  00000000  00005b90  2**0
                  CONTENTS, READONLY, DEBUGGING, OCTETS
  8 .comment      00000022  00000000  00000000  00006303  2**0
                  CONTENTS, READONLY
  9 .debug_frame  000001e4  00000000  00000000  00006328  2**2
                  CONTENTS, READONLY, DEBUGGING, OCTETS
 10 .debug_loc    00000408  00000000  00000000  0000650c  2**0
                  CONTENTS, READONLY, DEBUGGING, OCTETS
 11 .debug_ranges 00000058  00000000  00000000  00006914  2**0
                  CONTENTS, READONLY, DEBUGGING, OCTETS
Contents of section .text:
 2000 6f008025 00000000 00000000 00000000  o..%............
 2010 6f004011 00000000 00000000 00000000  o.@.............
 2020 00000000 00000000 00000000 00000000  ................
 2030 00000000 00000000 00000000 00000000  ................
 2040 00000000 00000000 00000000 00000000  ................
 2050 00000000 00000000 00000000 00000000  ................
 2060 00000000 00000000 00000000 00000000  ................
 2070 00000000 00000000 00000000 00000000  ................
 2080 00000000 00000000 00000000 00000000  ................
 2090 00000000 00000000 00000000 00000000  ................
 20a0 00000000 00000000 00000000 00000000  ................
 20b0 00000000 00000000 00000000 00000000  ................
 20c0 00000000 00000000 00000000 00000000  ................
 20d0 00000000 00000000 00000000 00000000  ................
 20e0 00000000 00000000 00000000 00000000  ................
 20f0 00000000 00000000 00000000 00000000  ................
 2100 00000000 00000000 00000000 00000000  ................
 2110 00000000 00000000 00000000 00000000  ................
 2120 00000000 130141f7 2324f109 2322e109  ......A.#$..#"..
 2130 2320d109 232ec107 232cb107 232aa107  # ..#...#,..#*..
 2140 23289107 23268107 23247107 23226107  #(..#&..#$q.#"a.
 2150 23205107 232e4105 232c3105 232a2105  # Q.#.A.#,1.#*!.
 2160 23281105 23260105 2324f104 2322e104  #(..#&..#$..#"..
 2170 2320d104 232ec102 232cb102 232aa102  # ..#...#,..#*..
 2180 23289102 23268102 23247102 23226102  #(..#&..#$q.#"a.
 2190 23205102 232e4100 232c3100 232a2100  # Q.#.A.#,1.#*!.
 21a0 23281100 73242034 23248100 73240030  #(..s$ 4#$..s$.0
 21b0 23228100 73241034 23208100 13050100  #"..s$.4# ......
 21c0 ef008012 13010500 03240100 73101434  .........$..s..4
 21d0 03244100 73100430 83200101 83218101  .$A.s..0. ...!..
 21e0 0322c101 83220102 03234102 83238102  ."..."...#A..#..
 21f0 0324c102 83240103 03254103 83258103  .$...$...%A..%..
 2200 0326c103 83260104 03274104 83278104  .&...&...'A..'..
 2210 0328c104 83280105 03294105 83298105  .(...(...)A..)..
 2220 032ac105 832a0106 032b4106 832b8106  .*...*...+A..+..
 2230 032cc106 832c0107 032d4107 832d8107  .,...,...-A..-..
 2240 032ec107 832e0108 032f4108 832f8108  ........./A../..
 2250 1301c108 73002030 37510000 130181cf  ....s. 07Q......
 2260 b7220000 93824212 73905230 b7420000  ."....B.s.R0.B..
 2270 938282ce 37530000 130383d0 23a00200  ....7S......#...
 2280 93824200 e3cc62fe ef008002 37250000  ..B...b.....7%..
 2290 13050502 03250500 b7250000 93854502  .....%...%....E.
 22a0 ef004029 7310207b ef000000 67800000  ..@)s. {....g...
 22b0 130101ff 23261100 ef008019 8320c100  ....#&....... ..
 22c0 37250000 1305c542 13010101 6f00105d  7%.....B....o..]
 22d0 b7470000 23a6a7ce 67800000 b7470000  .G..#...g....G..
 22e0 23a4a7ce 67800000 83274500 37e7ffff  #...g....'E.7...
 22f0 1307f77f b3f7e700 37270000 130101ff  ........7'......
 2300 13070780 83268500 23248100 23261100  .....&..#$..#&..
 2310 b3e7e700 2322f500 13040500 63c40606  ....#"......c...
 2320 93078000 6396f602 83250500 b7470000  ....c....%...G..
 2330 03a387ce 93874500 2320f500 63020306  ......E.# ..c...
 2340 03248100 8320c100 13010101 67000300  .$... ......g...
 2350 37460000 b7450000 37450000 93064003  7F...E..7E....@.
 2360 13068690 93850594 13058595 ef000019  ................
 2370 13050400 8320c100 03248100 13010101  ..... ...$......
 2380 67800000 b7470000 03a3c7ce e31a03fa  g....G..........
 2390 37450000 1305c58d ef001051 6ff05ffd  7E.........Qo._.
 23a0 37450000 1305c58e ef104010 6ff05ffc  7E........@.o._.
 23b0 130101fe 83264500 03268500 83250500  .....&E..&...%..
 23c0 232a9100 93040500 37450000 13050596  #*......7E......
 23d0 232c8100 23282101 23263101 232e1100  #,..#(!.#&1.#...
 23e0 9384c400 ef10800c 13040000 b7490000  .............I..
 23f0 13090002 03a60400 93050400 1385c998  ................
 2400 13041400 ef10800a 93844400 e31424ff  ..........D...$.
 2410 8320c101 03248101 83244101 03290101  . ...$...$A..)..
 2420 8329c100 13010102 67800000 b7070001  .)......g.......
 2430 3365f500 7310257b 13050000 67800000  3e..s.%{....g...
 2440 13050000 67800000 1305f0ff 67800000  ....g.......g...
 2450 67800000 83470500 638e0700 37070001  g....G..c...7...
 2460 13051500 b3e7e700 7390277b 83470500  ........s.'{.G..
 2470 e39807fe 67800000 67800000 130101ff  ....g...g.......
 2480 23202101 23261100 23248100 23229100  # !.#&..#$..#"..
 2490 13090500 732510c0 37c40000 93050435  ....s%..7......5
 24a0 ef108035 93040500 13040435 732510c0  ...5.......5s%..
 24b0 93050400 ef104034 33059540 e34825ff  ......@43..@.H%.
 24c0 8320c100 03248100 83244100 03290100  . ...$...$A..)..
 24d0 13010101 67800000 130101ff 23261100  ....g.......#&..
 24e0 732510c0 b7c50000 93850535 ef10c030  s%.........5...0
 24f0 8320c100 13010101 67800000 13870600  . ......g.......
 2500 93060600 13860500 93050500 37450000  ............7E..
 2510 130101ff 1305c599 23261100 ef001079  ........#&.....y
 2520 9307f00f 7390277b 8320c100 13010101  ....s.'{. ......
 2530 67800000 37450000 130101fe 1305c59a  g...7E..........
 2540 232e1100 232c8100 232a9100 23282101  #...#,..#*..#(!.
 2550 23263101 ef005035 37450000 1305459b  #&1...P57E....E.
 2560 ef009034 37440000 032704ce b7170000  ...47D...'......
 2570 93874723 6302f702 37460000 b7450000  ..G#c...7F...E..
 2580 37450000 93060002 1306869c 9385059d  7E..............
 2590 13058595 eff09ff6 b7440000 83a7c4cf  .........D......
 25a0 e39e0704 37450000 1305c59e ef00d02f  ....7E........./
 25b0 832604ce b7370000 9387c769 13971600  .&...7.....i....
 25c0 3307d700 2320e4ce 032704ce 6302f702  3...# ...'..c...
 25d0 37460000 b7450000 37450000 93065002  7F...E..7E....P.
 25e0 1306869c 9385859f 13058595 eff01ff1  ................
 25f0 9307f0ff 2320f4ce 032704ce 9306d0ff  ....# ...'......
 2600 93171700 b387e700 2320f4ce 832704ce  ........# ...'..
 2610 6382d702 37460000 b7450000 37450000  c...7F...E..7E..
 2620 93068002 1306869c 938585a0 13058595  ................
 2630 eff0dfec 9307b0ff 2320f4ce 032704ce  ........# ...'..
 2640 9306f0fb 93171700 b387e700 93972700  ..............'.
 2650 b387e700 2320f4ce 832704ce 6382d702  ....# ...'..c...
 2660 37460000 b7450000 37450000 9306b002  7F...E..7E......
 2670 1306869c 938545a1 13058595 eff01fe8  ......E.........
 2680 9307b0ff 2320f4ce 032704ce 93061004  ....# ...'......
 2690 93173700 b307f740 93971700 b387e700  ..7....@........
 26a0 2320f4ce 832704ce 6382d702 37460000  # ...'..c...7F..
 26b0 b7450000 37450000 9306e002 1306869c  .E..7E..........
 26c0 938505a2 13058595 eff05fe3 b757a9f8  .........._..W..
 26d0 93879792 2320f4ce 032504ce b7859300  ....# ...%......
 26e0 93853583 ef104009 2320a4ce 032704ce  ..5...@.# ...'..
 26f0 b7d78fe6 9387b7b2 6302f702 37460000  ........c...7F..
 2700 b7450000 37450000 93061003 1306869c  .E..7E..........
 2710 938505a3 13058595 eff05fde 37450000  .........._.7E..
 2720 1305c5a4 ef005018 b7370000 9387c769  ......P..7.....i
 2730 2320f4ce 032504ce 93055000 ef10800c  # ...%....P.....
 2740 2320a4ce 032704ce b7170000 9387c7ae  # ...'..........
 2750 6302f702 37460000 b7450000 37450000  c...7F...E..7E..
 2760 93066003 1306869c 938585a5 13058595  ..`.............
 2770 eff0dfd8 032504ce 93054006 ef108011  .....%....@.....
 2780 2320a4ce 032704ce 93070006 6302f702  # ...'......c...
 2790 37460000 b7450000 37450000 93068003  7F...E..7E......
 27a0 1306869c 938545a6 13058595 eff01fd5  ......E.........
 27b0 930770b0 2320f4ce 032504ce 93053001  ..p.# ...%....0.
 27c0 ef104004 2320a4ce 032704ce 9307d0fb  ..@.# ...'......
 27d0 6302f702 37460000 b7450000 37450000  c...7F...E..7E..
 27e0 9306b003 1306869c 938505a7 13058595  ................
 27f0 eff0dfd0 37450000 1305c5a7 ef00d00a  ....7E..........
 2800 93071000 2320f4ce 832704ce 37070080  ....# ...'..7...
 2810 9397f701 2320f4ce 832704ce 6382e702  ....# ...'..c...
 2820 37460000 b7450000 37450000 93060004  7F...E..7E......
 2830 1306869c 9385c5a8 13058595 eff01fcc  ................
 2840 37450000 130505aa ef001006 b7070080  7E..............
 2850 23aef4ce 83a7c4cf 37070040 93d71700  #.......7..@....
 2860 23aef4ce 83a7c4cf 638ae700 83a5c4cf  #.......c.......
 2870 37450000 130505ab ef005043 03a7c4cf  7E........PC....
 2880 b7070040 6302f702 37460000 b7450000  ...@c...7F...E..
 2890 37450000 93067004 1306869c 938545ab  7E....p.......E.
 28a0 13058595 eff09fc5 83a7c4cf 13071000  ................
 28b0 93d7e701 23aef4ce 83a7c4cf 6382e702  ....#.......c...
 28c0 37460000 b7450000 37450000 93069004  7F...E..7E......
 28d0 1306869c 938585ac 13058595 eff01fc2  ................
 28e0 37450000 1305c5ad ef00007c b7070080  7E.........|....
 28f0 2320f4ce 832704ce 370700c0 93d71740  # ...'..7......@
 2900 2320f4ce 832704ce 6382e702 37460000  # ...'..c...7F..
 2910 b7450000 37450000 9306e004 1306869c  .E..7E..........
 2920 938585af 13058595 eff05fbd 37450000  .........._.7E..
 2930 1305c5b0 ef004077 9307f0ff 2320f4ce  ......@w....# ..
 2940 832704ce 6352f002 37460000 b7450000  .'..cR..7F...E..
 2950 37450000 93062005 1306869c 938545b2  7E.... .......E.
 2960 13058595 eff09fb9 032704ce 93079000  .........'......
 2970 63c4e746 032704ce 9307a000 63cce742  c..F.'......c..B
 2980 032704ce 9307e0ff 6344f740 032704ce  .'......cD.@.'..
 2990 9307d0ff 634cf73c 37450000 130545b5  ....cL.<7E....E.
 29a0 ef008070 b7573412 93878767 23aef4ce  ...p.W4....g#...
 29b0 03a7c4cf 6302f702 37460000 b7450000  ....c...7F...E..
 29c0 37450000 9306c005 1306869c 938545b6  7E............E.
 29d0 13058595 eff09fb2 03a7c4cf b7570000  .............W..
 29e0 93878767 13170701 13570701 6302f702  ...g.....W..c...
 29f0 37460000 b7450000 37450000 9306e005  7F...E..7E......
 2a00 1306869c 938585b7 13058595 eff01faf  ................
 2a10 03d7c4cf b7570000 93878767 6302f702  .....W.....gc...
 2a20 37460000 b7450000 37450000 93060006  7F...E..7E......
 2a30 1306869c 938585b8 13058595 eff01fac  ................
 2a40 1384c4cf 03572400 b7170000 93874723  .....W$.......G#
 2a50 6302f702 37460000 b7450000 37450000  c...7F...E..7E..
 2a60 93061006 1306869c 9385c5b9 13058595  ................
 2a70 eff0dfa8 b7d7ffff 9387e7af 03572400  .............W$.
 2a80 239ef4ce b7170000 93874723 6302f702  #.........G#c...
 2a90 37460000 b7450000 37450000 93065006  7F...E..7E....P.
 2aa0 1306869c 9385c5b9 13058595 eff01fa5  ................
 2ab0 b7c7ffff 9387e7ab 03d7c4cf 2311f400  ............#...
 2ac0 b7d70000 9387e7af 631cf724 37450000  ........c..$7E..
 2ad0 130585bd ef00405d b7573412 93878767  ......@].W4....g
 2ae0 23aef4ce 03a7c4cf 6302f702 37460000  #.......c...7F..
 2af0 b7450000 37450000 9306e006 1306869c  .E..7E..........
 2b00 938545b6 13058595 eff05f9f 83a7c4cf  ..E......._.....
 2b10 13078007 93f7f70f 6382e702 37460000  ........c...7F..
 2b20 b7450000 37450000 93060007 1306869c  .E..7E..........
 2b30 938585be 13058595 eff05f9c 03c7c4cf  .........._.....
 2b40 93078007 6302f702 37460000 b7450000  ....c...7F...E..
 2b50 37450000 93062007 1306869c 938545bf  7E.... .......E.
 2b60 13058595 eff09f99 03471400 93076005  .........G....`.
 2b70 6302f702 37460000 b7450000 37450000  c...7F...E..7E..
 2b80 93063007 1306869c 938545c0 13058595  ..0.......E.....
 2b90 eff0df96 03472400 93074003 6302f702  .....G$...@.c...
 2ba0 37460000 b7450000 37450000 93064007  7F...E..7E....@.
 2bb0 1306869c 938545c1 13058595 eff01f94  ......E.........
 2bc0 03473400 93072001 6302f702 37460000  .G4... .c...7F..
 2bd0 b7450000 37450000 93065007 1306869c  .E..7E....P.....
 2be0 938545c2 13058595 eff05f91 9307b0fa  ..E......._.....
 2bf0 238ef4ce 03a7c4cf b7573412 9387b76a  #........W4....j
 2c00 6302f702 37460000 b7450000 37450000  c...7F...E..7E..
 2c10 93068007 1306869c 938545c3 13058595  ..........E.....
 2c20 eff0df8d 9307d0fc a300f400 03a7c4cf  ................
 2c30 b7d73412 9387b7da 6302f702 37460000  ..4.....c...7F..
 2c40 b7450000 37450000 9306a007 1306869c  .E..7E..........
 2c50 938585c4 13058595 eff05f8a 9307f0fe  .........._.....
 2c60 2301f400 03a7c4cf b7d7ef12 9387b7da  #...............
 2c70 6302f702 37460000 b7450000 37450000  c...7F...E..7E..
 2c80 9306c007 1306869c 9385c5c5 13058595  ................
 2c90 eff0df86 93071000 a301f400 03a7c4cf  ................
 2ca0 b7d7ef01 9387b7da 6302f702 37460000  ........c...7F..
 2cb0 b7450000 37450000 9306e007 1306869c  .E..7E..........
 2cc0 938505c7 13058595 eff05f83 37450000  .........._.7E..
 2cd0 130545c8 ef00403d b7270000 37470000  ..E...@=.'..7G..
 2ce0 938797db 232cf7ce 032687cf b7070100  ....#,...&......
 2cf0 938677ff 63f6c600 032787cf 6362f712  ..w.c....'..cb..
 2d00 8320c101 03248101 83244101 03290101  . ...$...$A..)..
 2d10 8329c100 13050000 13010102 67800000  .)..........g...
 2d20 b7490000 37490000 b7450000 93069006  .I..7I...E......
 2d30 1386899c 938505bb 13058995 eff00ffc  ................
 2d40 03572400 b7c70000 9387e7ab e300f7d8  .W$.............
 2d50 b7450000 9306a006 1386899c 938545bc  .E............E.
 2d60 13058995 eff08ff9 6ff05fd6 37460000  ........o._.7F..
 2d70 b7450000 37450000 93068005 1306869c  .E..7E..........
 2d80 938585b4 13058595 eff04ff7 6ff0dfc0  ..........O.o...
 2d90 37460000 b7450000 37450000 93067005  7F...E..7E....p.
 2da0 1306869c 938505b4 13058595 eff00ff5  ................
 2db0 6ff0dfbd 37460000 b7450000 37450000  o...7F...E..7E..
 2dc0 93065005 1306869c 938545b3 13058595  ..P.......E.....
 2dd0 eff0cff2 6ff0dfba 37460000 b7450000  ....o...7F...E..
 2de0 37450000 93064005 1306869c 9385c5b2  7E....@.........
 2df0 13058595 eff08ff0 6ff0dfb7 37460000  ........o...7F..
 2e00 b7450000 37450000 93061002 1306869c  .E..7E..........
 2e10 9385059e 13058595 eff04fee 6ff08ff8  ..........O.o...
 2e20 37450000 130545c9 ef000028 37460000  7E....E....(7F..
 2e30 b7450000 37450000 93065008 1306869c  .E..7E....P.....
 2e40 9385c5a9 13058595 eff04feb 6ff05feb  ..........O.o._.
 2e50 03230500 63060300 13850500 67000300  .#..c.......g...
 2e60 03274500 63000702 83268500 0326c500  .'E.c....&...&..
 2e70 63dac600 13861600 2324c500 3307d700  c.......#$..3...
 2e80 2300b700 67800000 83270601 63820704  #...g....'..c...
 2e90 63800504 130101ff 23229100 83274600  c.......#"...'F.
 2ea0 83240600 23248100 23202101 23261100  .$..#$..# !.#&..
 2eb0 13040600 13090500 63c8f402 8320c100  ........c.... ..
 2ec0 03248100 83244100 03290100 13010101  .$...$A..)......
 2ed0 67800000 8345c400 13050900 93841400  g....E..........
 2ee0 17030000 e70003f7 83274400 e3c4f4fe  .........'D.....
 2ef0 6ff0dffc 130101f8 232a9106 93840500  o.......#*......
 2f00 b7450000 23244107 23206107 9385c5ca  .E..#$A.# a.....
 2f10 130b0500 130a0600 13058100 13061001  ................
 2f20 232e1106 23282107 232c8106 13890600  #...#(!.#,......
 2f30 23263107 23225107 232e7105 17030000  #&1.#"Q.#.q.....
 2f40 e700c37e b7450000 13061001 938505cc  ...~.E..........
 2f50 1305c101 17030000 e700437d 9307a000  ..........C}....
 2f60 631efa0e 63dc040e b3049040 930b1000  c...c......@....
 2f70 83278901 93098100 63940700 9309c101  .'......c.......
 2f80 930a0103 9307a000 13840a00 631cfa0c  ............c...
 2f90 93050a00 13850400 17130000 e700038f  ................
 2fa0 3385a900 83470500 13041400 13850400  3....G..........
 2fb0 a30ff4fe 93050a00 17130000 e7000384  ................
 2fc0 93040500 e31605fc 63880b00 9307d002  ........c.......
 2fd0 2300f400 13041400 23000400 13850a00  #.......#.......
 2fe0 17030000 e700836f 83254901 2320a900  .......o.%I.# ..
 2ff0 13060900 93b51500 13050b00 9304f4ff  ................
 3000 17030000 e70083e8 93c7f4ff b307f400  ................
 3010 63e65401 0327c901 63c6e706 83254901  c.T..'..c....%I.
 3020 13060900 13050b00 17030000 e70003e6  ................
 3030 8320c107 03248107 83244107 03290107  . ...$...$A..)..
 3040 8329c106 032a8106 832a4106 032b0106  .)...*...*A..+..
 3050 832bc105 13010108 67800000 930b0000  .+......g.......
 3060 6ff01ff1 93f7f400 b387f900 83c70700  o...............
 3070 13041400 93d44400 a30ff4fe e39404fe  ......D.........
 3080 6ff09ff4 9384f4ff 83c51400 13050b00  o...............
 3090 17030000 e70003dc 6ff01ff7 b7470000  ........o....G..
 30a0 23aaa7ce 67800000 130101ff 23248100  #...g.......#$..
 30b0 37440000 832744cf 23229100 23261100  7D...'D.#"..#&..
 30c0 93040500 63940702 8320c100 1305f0ff  ....c.... ......
 30d0 03248100 83244100 13010101 67800000  .$...$A.....g...
 30e0 832744cf 93841400 e7800700 03c50400  .'D.............
 30f0 e31805fe 032344cf 8320c100 03248100  .....#D.. ...$..
 3100 83244100 1305a000 13010101 67000300  .$A.........g...
 3110 b7470000 83a747cf 130101ff 23248100  .G....G.....#$..
 3120 23261100 1304f0ff 63880700 13040500  #&......c.......
 3130 1375f50f e7800700 8320c100 13050400  .u....... ......
 3140 03248100 13010101 67800000 b7870000  .$......g.......
 3150 130101f9 9387f7ff 23248106 23229106  ........#$..#"..
 3160 23202107 23267105 23248105 23261106  # !.#&q.#$..#&..
 3170 232e3105 232c4105 232a5105 23286105  #.1.#,A.#*Q.#(a.
 3180 23229105 2320a105 232eb103 13090500  #"..# ..#.......
 3190 93040600 13840500 2324f100 930b3006  ........#$....0.
 31a0 130c0007 83450400 63920504 8320c106  .....E..c.... ..
 31b0 13050000 03248106 83244106 03290106  .....$...$A..)..
 31c0 8329c105 032a8105 832a4105 032b0105  .)...*...*A..+..
 31d0 832bc104 032c8104 832c4104 032d0104  .+...,...,A..-..
 31e0 832dc103 13010107 67800000 93075002  .-......g.....P.
 31f0 638af500 13050900 17030000 e70083c5  c...............
 3200 6f000013 93070002 230ef100 83278100  o.......#....'..
 3210 23200102 23220102 232cf100 9307a000  # ..#"..#,......
 3220 2326f102 130a0400 930c0000 130b9000  #&..............
 3230 930dc006 93091000 130dd002 83451a00  .............E..
 3240 13041400 938705fd 93f7f70f 6364fb0a  ............cd..
 3250 638a0c04 13050000 1307a000 034a0400  c............J..
 3260 130a0afd 9377fa0f 637efb00 232ca100  .....w..c~..#,..
 3270 1304f4ff 6f008000 938c0900 130a0400  ....o...........
 3280 6ff0dffb 93050700 2326e100 17030000  o.......#&......
 3290 e700c34e 13041400 3305aa00 0327c100  ...N....3....'..
 32a0 6ff0dffb 93070003 6394f500 230eb100  o.......c...#...
 32b0 13050000 1307a000 034a0400 130a0afd  .........J......
 32c0 9377fa0f 6378fb00 232aa100 23203103  .w..cx..#*..# 1.
 32d0 6ff01ffa 93050700 2326e100 17030000  o.......#&......
 32e0 e700c349 13041400 3305aa00 0327c100  ...I....3....'..
 32f0 6ff09ffc 1387f5fb 1377f70f 9337a701  o........w...7..
 3300 2324f102 93069001 93870500 63e4e600  #$..........c...
 3310 93870502 63887715 63ccfb04 638aa709  ....c.w.c...c...
 3320 634cfd00 13075002 93850700 e384e7ec  cL....P.........
 3330 13041400 6ff01fe7 1307e002 e38ee7f2  ....o...........
 3340 1307c005 e396e7fe 93078006 6388f514  ............c...
 3350 63e6b712 93071006 638ef512 13050900  c.......c.......
 3360 17030000 e70003af 13042a00 6ff01ff1  ..........*.o...
 3370 63848703 634afc00 13074006 638ee702  c...cJ....@.c...
 3380 e38eb7ef 6ff0dffa 13073007 6388e704  ....o.....0.c...
 3390 13078007 e39ee7f8 93078000 93894400  ..............D.
 33a0 2326f102 93060101 13060001 6f008001  #&..........o...
 33b0 23223103 6ff09fec 93894400 93060101  #"1.o.....D.....
 33c0 1306a000 83a50400 13050900 17030000  ................
 33d0 e70083b2 93840900 6ff09ff5 93894400  ........o.....D.
 33e0 83a40400 13850400 17030000 e700032f  .............../
 33f0 83254102 2328a100 13060101 93b51500  .%A.#(..........
 3400 13050900 17030000 e70043a8 83c70400  ..........C.....
 3410 63960702 13850400 17030000 e700032c  c..............,
 3420 83254102 2328a100 13060101 13050900  .%A.#(..........
 3430 17030000 e70083a5 6ff0dff9 83278101  ........o....'..
 3440 1387f7ff 232ce100 e38607fc 93841400  ....#,..........
 3450 83c5f4ff 13050900 17030000 e700839f  ................
 3460 6ff0dffa 83c50400 13050900 93894400  o.............D.
 3470 17030000 e700039e 6ff0dff5 9307e006  ........o.......
 3480 6382f502 93072007 e39af5ec 9305d000  c..... .........
 3490 6ff0dfec 93057000 6ff05fec 93058000  o.....p.o._.....
 34a0 6ff0dfeb 9305a000 6ff05feb 130101fb  o.......o._.....
 34b0 2322f104 b7470000 83a747cf 23261102  #"...G....G.#&..
 34c0 232ab102 232cc102 232ed102 2320e104  #*..#,..#...# ..
 34d0 23240105 23261105 638c0702 93050500  #$..#&..c.......
 34e0 13064103 13050101 2326c100 2328f100  ..A.....#&..#(..
 34f0 232a0100 232c0100 232e0100 17030000  #*..#,..#.......
 3500 e70003c5 8320c102 13010105 67800000  ..... ......g...
 3510 13050000 6ff01fff 63060504 130101fe  ....o...c.......
 3520 2322a100 b7870000 13050100 232e1100  #"..........#...
 3530 2326f100 23200100 23240100 17030000  #&..# ..#$......
 3540 e70003c1 03278100 83274100 b387e700  .....'...'A.....
 3550 23800700 8320c101 03258100 13010102  #.... ...%......
 3560 67800000 13050000 67800000 63000506  g.......g...c...
 3570 93870500 13070000 638c0504 130101fe  ........c.......
 3580 2322a100 93050600 13050100 13860600  #"..............
 3590 232e1100 2326f100 23200100 23240100  #...#&..# ..#$..
 35a0 17030000 e700c3ba 03278100 83274100  .........'...'A.
 35b0 b387e700 23800700 03278100 8320c101  ....#....'... ..
 35c0 13010102 13050700 67800000 13070000  ........g.......
 35d0 13050700 67800000 130101fb 23261102  ....g.......#&..
 35e0 232cc102 232ed102 2320e104 2322f104  #,..#...# ..#"..
 35f0 23240105 23261105 63060504 b7870000  #$..#&..c.......
 3600 13068103 232aa100 13050101 232ef100  ....#*......#...
 3610 2326c100 23280100 232c0100 17030000  #&..#(..#,......
 3620 e70003b3 03278101 83274101 b387e700  .....'...'A.....
 3630 23800700 03258101 8320c102 13010105  #....%... ......
 3640 67800000 13050000 6ff01fff 130101fb  g.......o.......
 3650 2322f104 23261102 232ed102 2320e104  #"..#&..#...# ..
 3660 23240105 23261105 93070000 63880504  #$..#&......c...
 3670 63060504 13830500 232aa100 93050600  c.......#*......
 3680 13050101 1306c103 2326c100 23280100  ........#&..#(..
 3690 232c0100 232e6100 17030000 e70043ab  #,..#.a.......C.
 36a0 83268101 0327c101 83274101 63d0e602  .&...'...'A.c...
 36b0 b387d700 23800700 83278101 8320c102  ....#....'... ..
 36c0 13850700 13010105 67800000 b387e700  ........g.......
 36d0 a38f07fe 6ff05ffe 93070500 03c70700  ....o._.........
 36e0 63160700 3385a740 67800000 93871700  c...3..@g.......
 36f0 6ff0dffe 93070000 638e0500 630c0500  o.......c...c...
 3700 b305b500 93070500 03c70700 63180700  ............c...
 3710 b387a740 13850700 67800000 e38ab7fe  ...@....g.......
 3720 93871700 6ff05ffe 3386c500 93070500  ....o._.3.......
 3730 6394c500 67800000 03c70500 93871700  c...g...........
 3740 93851500 a38fe7fe 6ff09ffe b386d500  ........o.......
 3750 1376f60f 638ed500 93851500 83c7f5ff  .v..c...........
 3760 13051500 a30ff5fe e396c7fe 67800000  ............g...
 3770 13050000 67800000 93070000 63960500  ....g.......c...
 3780 13850700 67800000 13f71500 63040700  ....g.......c...
 3790 b387a700 13151500 93d51500 6ff01ffe  ............o...
 37a0 9397f501 93060002 13070000 13031000  ................
 37b0 b7080080 13171700 636af500 63880700  ........cj..c...
 37c0 6366b300 3305f540 13671700 1398e501  cf..3..@.g......
 37d0 93d71700 33781801 9386f6ff b367f800  ....3x.......g..
 37e0 93d51500 e39806fc 63040600 13070500  ........c.......
 37f0 13050700 67800000 13060000 17030000  ....g...........
 3800 670043fa 130101ff 23261100 23248100  g.C.....#&..#$..
 3810 93070500 13870500 635e0502 b307a040  ........c^.....@
 3820 13041000 63cc0502 13060000 13850700  ....c...........
 3830 17030000 e70003f7 6f00c003 8320c100  ........o.... ..
 3840 03248100 13060000 13010101 17030000  .$..............
 3850 670043f5 e3d405fe 13040000 b305e040  g.C............@
 3860 13060000 13850700 17030000 e70083f3  ................
 3870 63140400 3305a040 8320c100 03248100  c...3..@. ...$..
 3880 13010101 67800000 13061000 17030000  ....g...........
 3890 670043f1 130101ff 23261100 23248100  g.C.....#&..#$..
 38a0 23229100 13040500 93840500 17030000  #"..............
 38b0 e70083f5 93050500 13850400 17030000  ................
 38c0 e700c3eb 8320c100 3305a440 83244100  ..... ..3..@.$A.
 38d0 03248100 13010101 67800000 556e6861  .$......g...Unha
 38e0 6e646c65 64204952 51210000 556e6861  ndled IRQ!..Unha
 38f0 6e646c65 64204543 414c4c3a 20504320  ndled ECALL: PC 
 3900 25303878 210a0000 2f686f6d 652f726f  %08x!.../home/ro
 3910 622f7265 706f2f72 69736376 2d722f70  b/repo/riscv-r/p
 3920 6c617466 6f726d2f 6d616368 696e652d  latform/machine-
 3930 73696d2f 65786365 7074696f 6e2e6300  sim/exception.c.
 3940 2122556e 68616e64 6c656420 65786365  !"Unhandled exce
 3950 7074696f 6e220000 41535345 52540000  ption"..ASSERT..
 3960 45786365 7074696f 6e3a2050 433d2530  Exception: PC=%0
 3970 38782043 61757365 3d257820 53746174  8x Cause=%x Stat
 3980 75733d25 3038780a 00000000 52454720  us=%08x.....REG 
 3990 252e3264 3a202530 38780a00 25733a20  %.2d: %08x..%s: 
 39a0 25732028 25733a25 64290a00 0a546573  %s (%s:%d)...Tes
 39b0 743a0000 312e2049 6e697469 616c6973  t:..1. Initialis
 39c0 65642064 61746100 6d61696e 2e630000  ed data.main.c..
 39d0 76617220 3d3d2030 78313233 34000000  var == 0x1234...
 39e0 75766172 203d3d20 30783000 322e204d  uvar == 0x0.2. M
 39f0 756c7469 706c7900 76617220 3d3d2031  ultiply.var == 1
 3a00 33393830 00000000 76617220 3d3d202d  3980....var == -
 3a10 33000000 76617220 3d3d202d 36350000  3...var == -65..
 3a20 76617220 3d3d2028 2d352a2d 31332900  var == (-5*-13).
 3a30 76617220 3d3d2028 2d313233 31323334  var == (-1231234
 3a40 31352a39 36363435 36332900 332e2044  15*9664563).3. D
 3a50 69766964 65000000 76617220 3d3d2032  ivide...var == 2
 3a60 37393600 76617220 3d3d2039 36000000  796.var == 96...
 3a70 76617220 3d3d202d 36370000 342e2053  var == -67..4. S
 3a80 68696674 206c6566 74000000 76617220  hift left...var 
 3a90 3d3d2030 78383030 30303030 30000000  == 0x80000000...
 3aa0 352e2053 68696674 20726967 68740000  5. Shift right..
 3ab0 25780a00 75766172 203d3d20 30783430  %x..uvar == 0x40
 3ac0 30303030 30300000 75766172 203d3d20  000000..uvar == 
 3ad0 30783030 30303030 30310000 362e2053  0x00000001..6. S
 3ae0 68696674 20726967 68742061 72697468  hift right arith
 3af0 6d657469 63000000 76617220 3d3d2030  metic...var == 0
 3b00 78433030 30303030 30000000 372e2053  xC0000000...7. S
 3b10 69676e65 6420636f 6d706172 6973696f  igned comparisio
 3b20 6e000000 76617220 3c203100 76617220  n...var < 1.var 
 3b30 3c207800 21287661 72203e20 78290000  < x.!(var > x)..
 3b40 76617220 3e207800 78203c3d 20766172  var > x.x <= var
 3b50 00000000 382e2057 6f726420 61636365  ....8. Word acce
 3b60 73730000 75766172 203d3d20 30783132  ss..uvar == 0x12
 3b70 33343536 37380000 7377203d 3d203078  345678..sw == 0x
 3b80 35363738 00000000 2a707377 2b2b203d  5678....*psw++ =
 3b90 3d203078 35363738 00000000 2a707377  = 0x5678....*psw
 3ba0 2b2b203d 3d203078 31323334 00000000  ++ == 0x1234....
 3bb0 2a707377 2b2b203d 3d203078 63616665  *psw++ == 0xcafe
 3bc0 00000000 2a707377 2b2b203d 3d203078  ....*psw++ == 0x
 3bd0 62616265 00000000 392e2042 79746520  babe....9. Byte 
 3be0 61636365 73730000 7362203d 3d203078  access..sb == 0x
 3bf0 37380000 2a707362 2b2b203d 3d203078  78..*psb++ == 0x
 3c00 37380000 2a707362 2b2b203d 3d203078  78..*psb++ == 0x
 3c10 35360000 2a707362 2b2b203d 3d203078  56..*psb++ == 0x
 3c20 33340000 2a707362 2b2b203d 3d203078  34..*psb++ == 0x
 3c30 31320000 75766172 203d3d20 30783132  12..uvar == 0x12
 3c40 33343536 61620000 75766172 203d3d20  3456ab..uvar == 
 3c50 30783132 33346364 61620000 75766172  0x1234cdab..uvar
 3c60 203d3d20 30783132 65666364 61620000   == 0x12efcdab..
 3c70 75766172 203d3d20 30783031 65666364  uvar == 0x01efcd
 3c80 61620000 31302e20 436f6d70 61726973  ab..10. Comparis
 3c90 696f6e00 2d20496e 636f7272 65637420  ion.- Incorrect 
 3ca0 636f6d70 61726973 696f6e00 30313233  comparision.0123
 3cb0 34353637 38394142 43444546 00000000  456789ABCDEF....
 3cc0 30313233 34353637 38396162 63646566  0123456789abcdef
 3cd0 00000000                             ....            
Contents of section .data:
 3cd4 00000000 00000000 00000000 34120000  ............4...
 3ce4 00000000                             ....            
Contents of section .debug_line:
 0000 ce020000 02005c00 00000101 fb0e0d00  ......\.........
 0010 01010101 00000001 0000012f 686f6d65  .........../home
 0020 2f726f62 2f726570 6f2f7269 7363762d  /rob/repo/riscv-
 0030 722f706c 6174666f 726d2f6d 61636869  r/platform/machi
 0040 6e652d73 696d0000 626f6f74 2e530001  ne-sim..boot.S..
 0050 00006578 63657074 696f6e5f 61736d2e  ..exception_asm.
 0060 68000100 00000005 02002000 00030901  h......... .....
 0070 030d0910 00010402 036f0914 01010303  .........o......
 0080 09040001 03010904 00010301 09040001  ................
 0090 03010904 00010301 09040001 03010904  ................
 00a0 00010301 09040001 03010904 00010301  ................
 00b0 09040001 03010904 00010301 09040001  ................
 00c0 03010904 00010301 09040001 03010904  ................
 00d0 00010301 09040001 03010904 00010301  ................
 00e0 09040001 03010904 00010301 09040001  ................
 00f0 03010904 00010301 09040001 03010904  ................
 0100 00010301 09040001 03010904 00010301  ................
 0110 09040001 03010904 00010301 09040001  ................
 0120 03010904 00010301 09040001 03010904  ................
 0130 00010301 09040001 03030904 00010301  ................
 0140 09040001 03020904 00010301 09040001  ................
 0150 03020904 00010301 09040001 03030904  ................
 0160 00010301 09040001 03010904 00010303  ................
 0170 09040001 03010904 00010302 09040001  ................
 0180 03010904 00010306 09040001 03020904  ................
 0190 00010301 09040001 03010904 00010301  ................
 01a0 09040001 03010904 00010301 09040001  ................
 01b0 03010904 00010301 09040001 03010904  ................
 01c0 00010301 09040001 03010904 00010301  ................
 01d0 09040001 03010904 00010301 09040001  ................
 01e0 03010904 00010301 09040001 03010904  ................
 01f0 00010301 09040001 03010904 00010301  ................
 0200 09040001 03010904 00010301 09040001  ................
 0210 03010904 00010301 09040001 03010904  ................
 0220 00010301 09040001 03010904 00010301  ................
 0230 09040001 03010904 00010302 09040001  ................
 0240 03020904 00010401 03480904 00010301  .........H......
 0250 09040001 03030904 00010301 09040001  ................
 0260 03010904 00010303 09040001 03010904  ................
 0270 00010303 09040001 03010904 00010304  ................
 0280 09040001 03010904 00010301 09040001  ................
 0290 03040904 00010304 09040001 03010904  ................
 02a0 00010301 09040001 03020904 00010301  ................
 02b0 09040001 03010904 00010307 09040001  ................
 02c0 03020904 00010307 09040001 09040000  ................
 02d0 01019300 00000200 55000000 0101fb0e  ........U.......
 02e0 0d000101 01010000 00010000 012f686f  ............./ho
 02f0 6d652f72 6f622f72 65706f2f 72697363  me/rob/repo/risc
 0300 762d722f 706c6174 666f726d 2f6d6163  v-r/platform/mac
 0310 68696e65 2d73696d 0000696e 69742e63  hine-sim..init.c
 0320 00010000 73657269 616c2e68 00010000  ....serial.h....
 0330 00000502 b0220000 18030209 08000103  ....."..........
 0340 04090400 01037f09 04000103 01090400  ................
 0350 01037f09 00000103 01090400 01037f09  ................
 0360 04000109 04000001 01000200 000200f8  ................
 0370 00000001 01fb0e0d 00010101 01000000  ................
 0380 01000001 2f686f6d 652f726f 622f7265  ..../home/rob/re
 0390 706f2f72 69736376 2d722f70 6c617466  po/riscv-r/platf
 03a0 6f726d2f 6d616368 696e652d 73696d00  orm/machine-sim.
 03b0 2f6f7074 2f726973 63763332 692f7269  /opt/riscv32i/ri
 03c0 73637633 322d756e 6b6e6f77 6e2d656c  scv32-unknown-el
 03d0 662f696e 636c7564 652f6d61 6368696e  f/include/machin
 03e0 65002f6f 70742f72 69736376 3332692f  e./opt/riscv32i/
 03f0 72697363 7633322d 756e6b6e 6f776e2d  riscv32-unknown-
 0400 656c662f 696e636c 7564652f 73797300  elf/include/sys.
 0410 00657863 65707469 6f6e2e63 00010000  .exception.c....
 0420 5f646566 61756c74 5f747970 65732e68  _default_types.h
 0430 00020000 5f737464 696e742e 68000300  ...._stdint.h...
 0440 00657863 65707469 6f6e2e68 00010000  .exception.h....
 0450 3c627569 6c742d69 6e3e0000 00006173  <built-in>....as
 0460 73657274 2e680001 00000000 0502d022  sert.h........."
 0470 00000312 01030009 00000103 01090c00  ................
 0480 01030009 00000103 06090c00 01030209  ................
 0490 00000103 01091000 01037d09 04000103  ..........}.....
 04a0 03090400 01030309 04000103 7a090400  ............z...
 04b0 01030309 08000103 7d090800 01030609  ........}.......
 04c0 04000103 0a090400 01030309 08000103  ................
 04d0 01090400 01037f09 08000103 01090800  ................
 04e0 01030c09 04000103 75090c00 01000204  ........u.......
 04f0 01030509 04000103 06092000 01036809  .......... ...h.
 0500 14000103 03090c00 01030c09 10000103  ................
 0510 0e091000 01030109 04000103 7f090c00  ................
 0520 01030109 08000103 7f090800 01030109  ................
 0530 14000103 01090400 01000204 03030209  ................
 0540 0c000100 02040303 7e090c00 01000204  ........~.......
 0550 03030209 04000100 02040303 7e090800  ............~...
 0560 01030409 04000109 1c000001 01df0000  ................
 0570 00020059 00000001 01fb0e0d 00010101  ...Y............
 0580 01000000 01000001 2f686f6d 652f726f  ......../home/ro
 0590 622f7265 706f2f72 69736376 2d722f70  b/repo/riscv-r/p
 05a0 6c617466 6f726d2f 6d616368 696e652d  latform/machine-
 05b0 73696d00 00736572 69616c2e 63000100  sim..serial.c...
 05c0 0073696d 5f637472 6c2e6800 01000000  .sim_ctrl.h.....
 05d0 0005022c 24000019 04020308 09000001  ...,$...........
 05e0 03010908 00010401 037a0904 00010305  .........z......
 05f0 09080001 03020900 00010305 09080001  ................
 0600 03020900 00010305 09080001 03020900  ................
 0610 00010305 09040001 03010900 00010402  ................
 0620 036a0908 00010401 03170904 00010402  .j..............
 0630 03690904 00010301 09040001 04010315  .i..............
 0640 09040001 03020908 00010904 00000101  ................
 0650 d3000000 02005500 00000101 fb0e0d00  ......U.........
 0660 01010101 00000001 0000012f 686f6d65  .........../home
 0670 2f726f62 2f726570 6f2f7269 7363762d  /rob/repo/riscv-
 0680 722f706c 6174666f 726d2f6d 61636869  r/platform/machi
 0690 6e652d73 696d0000 74696d65 722e6300  ne-sim..timer.c.
 06a0 01000074 696d6572 2e680001 00000000  ...timer.h......
 06b0 05027824 0000030f 01030209 00000103  ..x$............
 06c0 05090400 01030009 14000103 72090400  ............r...
 06d0 01031909 04000100 02040103 67091400  ............g...
 06e0 01000204 01031909 04000104 02000204  ................
 06f0 01037309 08000104 01000204 01030509  ..s.............
 0700 04000103 02090400 01030509 18000103  ................
 0710 68090800 01031909 04000103 01090c00  h...............
 0720 01090c00 000101a9 00000002 00670000  .............g..
 0730 000101fb 0e0d0001 01010100 00000100  ................
 0740 00012f68 6f6d652f 726f622f 7265706f  ../home/rob/repo
 0750 2f726973 63762d72 2f706c61 74666f72  /riscv-r/platfor
 0760 6d2f6d61 6368696e 652d7369 6d000061  m/machine-sim..a
 0770 73736572 742e6300 01000073 696d5f63  ssert.c....sim_c
 0780 74726c2e 68000100 003c6275 696c742d  trl.h....<built-
 0790 696e3e00 00000000 000502fc 24000018  in>.........$...
 07a0 03010900 0001037f 09140001 03010904  ................
 07b0 0001037f 09040001 03010904 00010402  ................
 07c0 03030904 00010401 037f0908 0001090c  ................
 07d0 00000101 7e050000 02002b01 00000101  ....~.....+.....
 07e0 fb0e0d00 01010101 00000001 0000012f  .............../
 07f0 6f70742f 72697363 76333269 2f726973  opt/riscv32i/ris
 0800 63763332 2d756e6b 6e6f776e 2d656c66  cv32-unknown-elf
 0810 2f696e63 6c756465 2f737973 002f6f70  /include/sys./op
 0820 742f7269 73637633 32692f6c 69622f67  t/riscv32i/lib/g
 0830 63632f72 69736376 33322d75 6e6b6e6f  cc/riscv32-unkno
 0840 776e2d65 6c662f37 2e322e30 2f696e63  wn-elf/7.2.0/inc
 0850 6c756465 002f686f 6d652f72 6f622f72  lude./home/rob/r
 0860 65706f2f 72697363 762d722f 706c6174  epo/riscv-r/plat
 0870 666f726d 2f6d6163 68696e65 2d73696d  form/machine-sim
 0880 002f6f70 742f7269 73637633 32692f72  ./opt/riscv32i/r
 0890 69736376 33322d75 6e6b6e6f 776e2d65  iscv32-unknown-e
 08a0 6c662f69 6e636c75 64650000 6d61696e  lf/include..main
 08b0 2e630000 00006c6f 636b2e68 00010000  .c....lock.h....
 08c0 5f747970 65732e68 00010000 73746464  _types.h....stdd
 08d0 65662e68 00020000 7265656e 742e6800  ef.h....reent.h.
 08e0 01000061 73736572 742e6800 03000073  ...assert.h....s
 08f0 7464696f 2e680004 00003c62 75696c74  tdio.h....<built
 0900 2d696e3e 00000000 00000502 34250000  -in>........4%..
 0910 03140103 08090000 01037809 04000103  ..........x.....
 0920 08090400 01037809 04000103 08091400  ......x.........
 0930 01030209 04000103 01090c00 01000204  ................
 0940 01060300 09140001 06030109 20000103  ............ ...
 0950 02090c00 01030109 0c000103 01090400  ................
 0960 01037f09 08000103 01090c00 01000204  ................
 0970 01060300 09080001 06030109 20000103  ............ ...
 0980 01090800 01030109 04000103 7f090400  ................
 0990 01030109 0c000100 02040106 03000908  ................
 09a0 00010603 01092000 01030109 08000103  ...... .........
 09b0 01090400 01037f09 04000103 01091400  ................
 09c0 01000204 01060300 09080001 06030109  ................
 09d0 20000103 01090800 01030109 04000103   ...............
 09e0 7f090400 01030109 14000100 02040106  ................
 09f0 03000908 00010603 01092000 01030109  .......... .....
 0a00 0c000103 01091400 01000204 01060300  ................
 0a10 09100001 06030209 20000103 01090c00  ........ .......
 0a20 01030109 0c000103 01091000 01000204  ................
 0a30 01060300 09100001 06030109 20000103  ............ ...
 0a40 01091000 01000204 01060300 090c0001  ................
 0a50 06030109 20000103 01090800 01030109  .... ...........
 0a60 10000100 02040106 0300090c 00010603  ................
 0a70 02092000 01030109 0c000103 01090800  .. .............
 0a80 01030109 04000103 7f090400 01030109  ................
 0a90 08000100 02040106 03000908 00010603  ................
 0aa0 02092000 01030109 0c000103 01090800  .. .............
 0ab0 01030109 04000103 7f090400 01030109  ................
 0ac0 08000103 01090800 01030109 10000100  ................
 0ad0 02040106 0300090c 00010603 01092000  .............. .
 0ae0 01030109 04000103 7f090400 01030109  ................
 0af0 08000100 02040106 03000908 00010603  ................
 0b00 02092000 01030109 0c000103 01090800  .. .............
 0b10 01030109 04000103 7f090400 01030109  ................
 0b20 08000100 02040106 03000908 00010603  ................
 0b30 02092000 01030109 0c000103 01090800  .. .............
 0b40 01000204 01060300 09080001 06030209  ................
 0b50 20000103 01090c00 01030209 0c000103   ...............
 0b60 01090c00 01030209 0c000103 01090c00  ................
 0b70 01030109 0c000100 02040106 03000908  ................
 0b80 00010603 01092000 01030109 04000100  ...... .........
 0b90 02040106 03000914 00010603 02092000  .............. .
 0ba0 01000204 01060300 09100001 06030109  ................
 0bb0 20000100 02040106 03000914 00010603   ...............
 0bc0 02092000 01030209 08000103 7e090400  .. .........~...
 0bd0 01030209 04000100 02040106 0300090c  ................
 0be0 00010603 02092000 01030209 08000103  ...... .........
 0bf0 7e090400 01030209 04000103 03090c00  ~...............
 0c00 01030109 0c000103 01090c00 01000204  ................
 0c10 01060300 09080001 06030109 20000103  ............ ...
 0c20 01090400 01000204 01060300 090c0001  ................
 0c30 06030209 20000100 02040106 0300090c  .... ...........
 0c40 00010603 01092000 01000204 01060300  ...... .........
 0c50 090c0001 06030109 20000100 02040106  ........ .......
 0c60 0300090c 00010603 01092000 01000204  .......... .....
 0c70 01060300 090c0001 06030209 20000103  ............ ...
 0c80 01090800 01000204 01060300 09100001  ................
 0c90 06030109 20000103 01090800 01000204  .... ...........
 0ca0 01060300 09100001 06030109 20000103  ............ ...
 0cb0 01090800 01000204 01060300 09100001  ................
 0cc0 06030109 20000103 01090800 01000204  .... ...........
 0cd0 01060300 09100001 06030209 20000103  ............ ...
 0ce0 01090c00 01030109 10000100 02040106  ................
 0cf0 03000910 00010603 05090800 01000204  ................
 0d00 01036209 20000100 02040103 01092000  ..b. ......... .
 0d10 01000204 01036e09 2c000100 02040103  ......n.,.......
 0d20 7f092400 01000204 01037e09 24000100  ..$.......~.$...
 0d30 02040103 7f092400 01000204 01034d09  ......$.......M.
 0d40 24000103 e3000924 00010301 090c0001  $......$........
 0d50 09240000 0101                        .$....          
Contents of section .debug_info:
 0000 22000000 02000000 00000401 00000000  "...............
 0010 00200000 b0220000 00000000 33000000  . ..."......3...
 0020 56000000 01807800 00000400 14000000  V.....x.........
 0030 04016200 00000c90 00000033 000000b0  ..b........3....
 0040 22000020 000000d2 02000002 da000000  ".. ............
 0050 0106b022 00002000 0000019c 5e000000  ...".. .....^...
 0060 03c30000 00010c5e 0000004b 00000004  .......^...K....
 0070 0005bc22 00006500 000006d0 22000070  ..."..e....."..p
 0080 00000000 07040569 6e740008 d3000000  .......int......
 0090 d3000000 020708c3 000000c3 00000001  ................
 00a0 0c00de02 00000400 8f000000 04016200  ..............b.
 00b0 00000c4d 01000033 000000d0 2200005c  ...M...3...."..\
 00c0 01000069 03000002 01064101 00000201  ...i......A.....
 00d0 083f0100 00020205 06020000 02020785  .?..............
 00e0 01000002 0405f601 000003b7 01000002  ................
 00f0 4f530000 00020407 d9010000 020805f1  OS..............
 0100 01000002 0807d401 00000404 05696e74  .............int
 0110 00020407 de010000 03b90100 00033048  ..............0H
 0120 00000005 ab010000 8c0422bd 00000006  ..........".....
 0130 70630004 24760000 000007df 00000004  pc..$v..........
 0140 25760000 000407eb 01000004 26760000  %v..........&v..
 0150 00080672 65670004 27bd0000 000c0008  ...reg..'.......
 0160 76000000 cd000000 096f0000 001f0003  v........o......
 0170 38010000 042ad800 00000a04 de000000  8....*..........
 0180 0bed0000 00ed0000 000ced00 0000000a  ................
 0190 04810000 00031e01 0000042b d8000000  ...........+....
 01a0 0d110100 000110cd 00000005 03ec3c00  ..............<.
 01b0 000df300 00000111 f3000000 0503e83c  ...............<
 01c0 00000e98 01000001 3eb02300 007c0000  ........>.#..|..
 01d0 00019ca2 0100000f 63747800 013eed00  ........ctx..>..
 01e0 00000000 000010ff 01000005 00680000  .............h..
 01f0 005a0100 000ca201 00001100 12e82300  .Z............#.
 0200 00280000 008e0100 00136900 01416800  .(........i..Ah.
 0210 00003900 00001408 240000bc 02000015  ..9.....$.......
 0220 015a0503 8c390000 15015b02 787f0000  .Z...9....[.x...
 0230 14e82300 00bc0200 0015015a 05036039  ..#........Z..`9
 0240 00000000 0a04af01 00000201 08480100  .............H..
 0250 0016a801 000017c2 01000001 19ed0000  ................
 0260 00e82200 00c80000 00019c76 0200000f  .."........v....
 0270 63747800 0119ed00 00007b00 00001290  ctx.......{.....
 0280 23000010 00000013 02000010 ff010000  #...............
 0290 05006800 0000ff01 00000ca2 01000011  ..h.............
 02a0 00149c23 0000c702 00001501 5a0503dc  ...#........Z...
 02b0 38000000 0012a023 00001000 00004a02  8......#......J.
 02c0 000010ff 01000005 00680000 00360200  .........h...6..
 02d0 000ca201 00001100 14ac2300 00bc0200  ..........#.....
 02e0 0015015a 0503ec38 00000000 14702300  ...Z...8.....p#.
 02f0 00d60200 0015015a 05035839 00001501  .......Z..X9....
 0300 5b050340 39000015 015c0503 08390000  [..@9....\...9..
 0310 15015d02 08340000 0ee60000 000114dc  ..]..4..........
 0320 2200000c 00000001 9c990200 0018fc00  "...............
 0330 00000114 f3000000 015a000e 04010000  .........Z......
 0340 0113d022 00000c00 0000019c bc020000  ..."............
 0350 18fc0000 000113cd 00000001 5a0019ff  ............Z...
 0360 010000ff 01000005 001a3301 00002901  ..........3...).
 0370 00000500 33010000 19100200 00100200  ....3...........
 0380 00060400 60010000 0400f601 00000401  ....`...........
 0390 62000000 0c5a0200 00330000 002c2400  b....Z...3...,$.
 03a0 004c0000 006d0500 00024c02 00000124  .L...m....L....$
 03b0 54240000 24000000 019c8b00 00000373  T$..$..........s
 03c0 74720001 248b0000 00b20000 0004da00  tr..$...........
 03d0 00005c24 00000000 00000127 05ea0000  ..\$.......'....
 03e0 00d00000 0004f500 00005c24 00001800  ..........\$....
 03f0 00000109 05010100 00e30000 00063000  ..............0.
 0400 0000070b 010000fb 00000000 00000008  ................
 0410 04910000 00090108 48010000 0ad30000  ........H.......
 0420 00011d50 24000004 00000001 9c0b1f02  ...P$...........
 0430 00000116 be000000 48240000 08000000  ........H$......
 0440 019c0c04 05696e74 000b3d02 0000010f  .....int..=.....
 0450 be000000 40240000 08000000 019c0d2e  ....@$..........
 0460 02000001 07be0000 0001f500 00000e63  ...............c
 0470 68000107 91000000 000f8f02 0000020e  h...............
 0480 03170100 000e6368 00020ebe 00000010  ......ch........
 0490 61726700 02101701 00000009 0407de01  arg.............
 04a0 000011da 0000002c 24000014 00000001  .......,$.......
 04b0 9c05ea00 00001701 000012f5 0000002c  ...............,
 04c0 2400000c 00000001 09050101 00003801  $.............8.
 04d0 0000132c 2400000c 00000007 0b010000  ...,$...........
 04e0 61010000 00000000 7b010000 04001403  a.......{.......
 04f0 00000401 62000000 0ccb0200 00330000  ....b........3..
 0500 00782400 00840000 00500600 0002a302  .x$......P......
 0510 0000020c 30000000 030407d9 01000004  ....0...........
 0520 c1020000 01202500 00000105 b5020000  ..... %.........
 0530 01167c24 00005c00 0000019c f1000000  ..|$..\.........
 0540 06130300 000116f1 00000092 01000007  ................
 0550 74000118 25000000 08370000 00942400  t...%....7....$.
 0560 00140000 000118a3 00000009 09010000  ................
 0570 94240000 04000000 01220a94 24000004  .$......."..$...
 0580 0000000b 19010000 00000008 37000000  ............7...
 0590 a8240000 10000000 011ad600 00000909  .$..............
 05a0 010000ac 24000004 00000001 220aac24  ....$......."..$
 05b0 00000400 00000b19 01000000 00000925  ...............%
 05c0 010000b8 24000004 00000001 1a0c3e01  ....$.........>.
 05d0 00000c35 01000000 000d0405 696e7400  ...5........int.
 05e0 0eaa0200 00010f78 24000004 00000001  .......x$.......
 05f0 9c0fff02 00000106 30000000 03250100  ........0....%..
 0600 00106b06 00000108 30000000 000f9802  ..k.....0.......
 0610 00000215 48010000 01480100 00116100  ....H....H....a.
 0620 02152500 00001162 00021525 00000000  ..%....b...%....
 0630 030405f6 01000012 37000000 d8240000  ........7....$..
 0640 24000000 019c0909 010000e0 24000004  $...........$...
 0650 00000001 220ae024 00000400 00000b19  ...."..$........
 0660 01000000 00000037 01000004 00200400  .......7..... ..
 0670 00040162 0000000c 3d030000 33000000  ...b....=...3...
 0680 fc240000 38000000 27070000 02100200  .$..8...'.......
 0690 000106fc 24000038 00000001 9cec0000  ....$..8........
 06a0 00031a03 00000106 ec000000 be010000  ................
 06b0 03280300 000106ec 000000ea 01000003  .(..............
 06c0 ee040000 0106ec00 00001602 00000338  ...............8
 06d0 03000001 06fe0000 00420200 0004ff01  .........B......
 06e0 00000300 fe000000 8c000000 05ec0000  ................
 06f0 00060007 05010000 20250000 08000000  ........ %......
 0700 0109bc00 00000811 0100006e 02000009  ...........n....
 0710 20250000 08000000 0a1c0100 00830200   %..............
 0720 0000000b 20250000 2f010000 0c015a05  .... %../.....Z.
 0730 039c3900 000c015b 03f3015a 0c015c03  ..9....[...Z..\.
 0740 f3015b0c 015d03f3 015c0c01 5e03f301  ..[..]...\..^...
 0750 5d00000d 04f90000 000e0108 48010000  ]...........H...
 0760 0ff20000 00100405 696e7400 112f0300  ........int../..
 0770 00020803 28010000 121f0300 000208fe  ....(...........
 0780 00000013 61726700 020a2801 0000000e  ....arg...(.....
 0790 0407de01 000014ff 010000ff 01000003  ................
 07a0 00008211 00000400 23050000 04016200  ........#.....b.
 07b0 00000c2a 05000033 00000048 00000000  ...*...3...H....
 07c0 000000d4 07000002 01064101 00000201  ..........A.....
 07d0 083f0100 00020205 06020000 02020785  .?..............
 07e0 01000002 0405f601 00000204 07d90100  ................
 07f0 00034800 00000208 05f10100 00020807  ..H.............
 0800 d4010000 04040569 6e740003 62000000  .......int..b...
 0810 020407de 01000003 6e000000 02100460  ........n......`
 0820 05000005 a5050000 02076200 00000594  ..........b.....
 0830 05000003 2c410000 00057706 00000372  ....,A....w....r
 0840 41000000 05000700 00039162 00000006  A..........b....
 0850 31050000 0465016e 00000007 0403a6d8  1....e.n........
 0860 00000008 24050000 03a8ad00 000008d6  ....$...........
 0870 04000003 a9d80000 0000092c 000000e8  ...........,....
 0880 0000000a 6e000000 03000b08 03a30901  ....n...........
 0890 00000c61 06000003 a5620000 00000c69  ...a.....b.....i
 08a0 06000003 aab90000 00040005 e3050000  ................
 08b0 03abe800 00000599 04000003 af810000  ................
 08c0 000d0405 b6060000 05164800 00000eaa  ..........H.....
 08d0 04000018 052f7f01 00000c04 06000005  ...../..........
 08e0 317f0100 00000f5f 6b000532 62000000  1......_k..2b...
 08f0 040c4c06 00000532 62000000 080c9304  ..L....2b.......
 0900 00000532 62000000 0c0ceb06 00000532  ...2b..........2
 0910 62000000 100f5f78 00053385 01000014  b....._x..3.....
 0920 0010042c 01000009 21010000 95010000  ...,....!.......
 0930 0a6e0000 0000000e d1040000 2405370e  .n..........$.7.
 0940 0200000c f6030000 05396200 0000000c  .........9b.....
 0950 7f060000 053a6200 0000040c 0b040000  .....:b.........
 0960 053b6200 0000080c 69070000 053c6200  .;b.....i....<b.
 0970 00000c0c 78050000 053d6200 0000100c  ....x....=b.....
 0980 4d050000 053e6200 0000140c f0060000  M....>b.........
 0990 053f6200 0000180c c5050000 05406200  .?b..........@b.
 09a0 00001c0c 2b070000 05416200 00002000  ....+....Ab... .
 09b0 111a0400 00080105 4a4e0200 000c8604  ........JN......
 09c0 0000054b 4e020000 000c7203 0000054c  ...KN.....r....L
 09d0 4e020000 80129b06 0000054e 21010000  N..........N!...
 09e0 0001123f 04000005 51210100 00040100  ...?....Q!......
 09f0 091f0100 005e0200 000a6e00 00001f00  .....^....n.....
 0a00 11810500 00900105 5d9c0200 000c0406  ........].......
 0a10 0000055e 9c020000 000c1c06 0000055f  ...^..........._
 0a20 62000000 040c8e04 00000561 a2020000  b..........a....
 0a30 080c1a04 00000562 0e020000 88001004  .......b........
 0a40 5e020000 09b20200 00b20200 000a6e00  ^.............n.
 0a50 00001f00 1004b802 0000130e cf050000  ................
 0a60 080575de 0200000c 05040000 0576de02  ..u..........v..
 0a70 0000000c 7e030000 05776200 00000400  ....~....wb.....
 0a80 10042c00 00000eee 05000068 05b50e04  ..,........h....
 0a90 00000f5f 700005b6 de020000 000f5f72  ..._p........._r
 0aa0 0005b762 00000004 0f5f7700 05b86200  ...b....._w...b.
 0ab0 0000080c 38040000 05b93300 00000c0c  ....8.....3.....
 0ac0 ed040000 05ba3300 00000e0f 5f626600  ......3....._bf.
 0ad0 05bbb902 0000100c c5030000 05bc6200  ..............b.
 0ae0 0000180c 28040000 05c31f01 00001c0c  ....(...........
 0af0 c1040000 05c57b05 0000200c 46050000  ......{... .F...
 0b00 05c7a505 0000240c 71060000 05cac905  ......$.q.......
 0b10 0000280c 45070000 05cbe305 00002c0f  ..(.E.........,.
 0b20 5f756200 05ceb902 0000300f 5f757000  _ub.......0._up.
 0b30 05cfde02 0000380f 5f757200 05d06200  ......8._ur...b.
 0b40 00003c0c ff030000 05d3e905 0000400c  ..<...........@.
 0b50 1d070000 05d4f905 0000430f 5f6c6200  ..........C._lb.
 0b60 05d7b902 0000440c 4e040000 05da6200  ......D.N.....b.
 0b70 00004c0c 5f040000 05db8c00 0000500c  ..L._.........P.
 0b80 97030000 05de2c04 0000540c 38050000  ......,...T.8...
 0b90 05e21401 0000580c f6050000 05e40901  ......X.........
 0ba0 00005c0c 3e050000 05e56200 00006400  ..\.>.....b...d.
 0bb0 14a20000 002c0400 00152c04 0000151f  .....,....,.....
 0bc0 01000015 69050000 15620000 00001004  ....i....b......
 0bd0 37040000 162c0400 00175406 00002804  7....,....T...(.
 0be0 05390269 05000018 be050000 053b0262  .9.i.........;.b
 0bf0 00000000 18470400 00054002 50060000  .....G....@.P...
 0c00 0418dd04 00000540 02500600 000818a2  .......@.P......
 0c10 04000005 40025006 00000c18 17060000  ....@.P.........
 0c20 05420262 00000010 188c0300 00054302  .B.b..........C.
 0c30 32080000 14183306 00000546 02620000  2.....3....F.b..
 0c40 00301821 06000005 47024708 00003418  .0.!....G.G...4.
 0c50 89050000 05490262 00000038 18290600  .....I.b...8.)..
 0c60 00054b02 58080000 3c181c05 0000054e  ..K.X...<......N
 0c70 027f0100 004018c7 04000005 4f026200  .....@......O.b.
 0c80 00004418 5f070000 0550027f 01000048  ..D._....P.....H
 0c90 189b0500 00055102 5e080000 4c18e504  ......Q.^...L...
 0ca0 00000554 02620000 00501857 04000005  ...T.b...P.W....
 0cb0 55026905 00005418 b7050000 05780210  U.i...T......x..
 0cc0 08000058 19810500 00057c02 9c020000  ...X......|.....
 0cd0 480119fa 04000005 7d025e02 00004c01  H.......}.^...L.
 0ce0 19130700 00058102 6f080000 dc021930  ........o......0
 0cf0 04000005 86021506 0000e002 19150400  ................
 0d00 00058702 7b080000 ec020010 046f0500  ....{........o..
 0d10 00020108 48010000 166f0500 0010040e  ....H....o......
 0d20 04000014 a2000000 9f050000 152c0400  .............,..
 0d30 00151f01 0000159f 05000015 62000000  ............b...
 0d40 00100476 05000010 04810500 00149700  ...v............
 0d50 0000c905 0000152c 04000015 1f010000  .......,........
 0d60 15970000 00156200 00000010 04ab0500  ......b.........
 0d70 00146200 0000e305 0000152c 04000015  ..b........,....
 0d80 1f010000 001004cf 05000009 2c000000  ............,...
 0d90 f9050000 0a6e0000 00020009 2c000000  .....n......,...
 0da0 09060000 0a6e0000 00000006 dc050000  .....n..........
 0db0 051f01e4 0200001a fa060000 0c052301  ..............#.
 0dc0 4a060000 18040600 00052501 4a060000  J.........%.J...
 0dd0 0018f304 00000526 01620000 000418d6  .......&.b......
 0de0 05000005 27015006 00000800 10041506  ....'.P.........
 0df0 00001004 09060000 1a840300 000e053f  ...............?
 0e00 018b0600 00185b06 00000540 018b0600  ......[....@....
 0e10 00001888 06000005 41018b06 00000618  ........A.......
 0e20 a4060000 0542013a 0000000c 00093a00  .....B.:......:.
 0e30 00009b06 00000a6e 00000002 001bd005  .......n........
 0e40 59029c07 000018de 06000005 5b026e00  Y...........[.n.
 0e50 00000018 8e060000 055c0269 05000004  .........\.i....
 0e60 180f0500 00055d02 9c070000 08183607  ......].......6.
 0e70 0000055e 02950100 002418b2 04000005  ...^.....$......
 0e80 5f026200 00004818 ff050000 0560025b  _.b...H......`.[
 0e90 00000050 184c0700 00056102 56060000  ...P.L....a.V...
 0ea0 58180a06 00000562 02090100 00681851  X......b.....h.Q
 0eb0 07000005 63020901 00007018 e8030000  ....c.....p.....
 0ec0 05640209 01000078 18090700 00056502  .d.....x......e.
 0ed0 ac070000 80180305 00000566 02bc0700  ...........f....
 0ee0 008818be 06000005 67026200 0000a018  ........g.b.....
 0ef0 78040000 05680209 010000a4 18d90300  x....h..........
 0f00 00056902 09010000 ac186704 0000056a  ..i.......g....j
 0f10 02090100 00b4189d 03000005 6b020901  ............k...
 0f20 0000bc18 ac030000 056c0209 010000c4  .........l......
 0f30 18bc0500 00056d02 62000000 cc00096f  ......m.b......o
 0f40 050000ac 0700000a 6e000000 1900096f  ........n......o
 0f50 050000bc 0700000a 6e000000 0700096f  ........n......o
 0f60 050000cc 0700000a 6e000000 17001bf0  ........n.......
 0f70 057202f0 07000018 6c050000 057502f0  .r......l....u..
 0f80 07000000 18570500 00057602 00080000  .....W....v.....
 0f90 780009de 02000000 0800000a 6e000000  x...........n...
 0fa0 1d00096e 00000010 0800000a 6e000000  ...n........n...
 0fb0 1d001cf0 05570232 0800001d 54060000  .....W.2....T...
 0fc0 056e029b 0600001d 23070000 057702cc  .n......#....w..
 0fd0 07000000 096f0500 00420800 000a6e00  .....o...B....n.
 0fe0 00001800 1ece0300 00100442 0800001f  ...........B....
 0ff0 58080000 152c0400 00001004 4d080000  X....,......M...
 1000 10047f01 00001f6f 08000015 62000000  .......o....b...
 1010 00100475 08000010 04640800 00090906  ...u.....d......
 1020 00008b08 00000a6e 00000002 0020d206  .......n..... ..
 1030 000005fe 022c0400 0020cb06 000005ff  .....,... ......
 1040 02320400 00217661 7200010b 69000000  .2...!var...i...
 1050 0503e03c 00002273 05000001 0c750000  ...<.."s.....u..
 1060 000503fc 3c000021 70747200 010dd608  ....<..!ptr.....
 1070 00000503 003d0000 10046900 000022bd  .....=....i...".
 1080 03000001 0e4f0000 000503f8 3c000022  .....O......<.."
 1090 a9060000 010f6900 00000503 f03c0000  ......i......<..
 10a0 23640700 00011462 00000034 2500001c  #d.....b...4%...
 10b0 09000001 9c5a1100 00247800 01166200  .....Z...$x...b.
 10c0 00009802 00002569 00011762 00000024  ......%i...b...$
 10d0 73770001 183a0000 00d20200 00247073  sw...:.......$ps
 10e0 77000119 5a110000 e5020000 24736200  w...Z.......$sb.
 10f0 011a2c00 00005d03 00002470 73620001  ..,...]...$psb..
 1100 1bde0200 00700300 00265825 00006011  .....p...&X%..`.
 1110 00007e09 00002701 5a0503ac 39000000  ..~...'.Z...9...
 1120 26642500 00601100 00950900 0027015a  &d%..`.......'.Z
 1130 0503b439 00000026 98250000 6f110000  ...9...&.%..o...
 1140 c4090000 27015a05 03583900 0027015b  ....'.Z..X9..'.[
 1150 0503d039 00002701 5c0503c8 39000027  ...9..'.\...9..'
 1160 015d0208 200026b0 25000060 110000db  .].. .&.%..`....
 1170 09000027 015a0503 ec390000 0026f025  ...'.Z...9...&.%
 1180 00006f11 00000a0a 00002701 5a050358  ..o.......'.Z..X
 1190 39000027 015b0503 f8390000 27015c05  9..'.[...9..'.\.
 11a0 03c83900 0027015d 02082500 26342600  ..9..'.]..%.&4&.
 11b0 006f1100 00390a00 0027015a 05035839  .o...9...'.Z..X9
 11c0 00002701 5b050308 3a000027 015c0503  ..'.[...:..'.\..
 11d0 c8390000 27015d02 08280026 80260000  .9..'.]..(.&.&..
 11e0 6f110000 680a0000 27015a05 03583900  o...h...'.Z..X9.
 11f0 0027015b 0503143a 00002701 5c0503c8  .'.[...:..'.\...
 1200 39000027 015d0208 2b0026cc 2600006f  9..'.]..+.&.&..o
 1210 11000097 0a000027 015a0503 58390000  .......'.Z..X9..
 1220 27015b05 03203a00 0027015c 0503c839  '.[.. :..'.\...9
 1230 00002701 5d02082e 00261c27 00006f11  ..'.]....&.'..o.
 1240 0000c60a 00002701 5a050358 39000027  ......'.Z..X9..'
 1250 015b0503 303a0000 27015c05 03c83900  .[..0:..'.\...9.
 1260 0027015d 02083100 26282700 00601100  .'.]..1.&('..`..
 1270 00dd0a00 0027015a 05034c3a 00000026  .....'.Z..L:...&
 1280 74270000 6f110000 0c0b0000 27015a05  t'..o.......'.Z.
 1290 03583900 0027015b 0503583a 00002701  .X9..'.[..X:..'.
 12a0 5c0503c8 39000027 015d0208 360026b0  \...9..'.]..6.&.
 12b0 2700006f 1100003b 0b000027 015a0503  '..o...;...'.Z..
 12c0 58390000 27015b05 03643a00 0027015c  X9..'.[..d:..'.\
 12d0 0503c839 00002701 5d020838 0026f427  ...9..'.]..8.&.'
 12e0 00006f11 00006a0b 00002701 5a050358  ..o...j...'.Z..X
 12f0 39000027 015b0503 703a0000 27015c05  9..'.[..p:..'.\.
 1300 03c83900 0027015d 02083b00 26002800  ..9..'.]..;.&.(.
 1310 00601100 00810b00 0027015a 05037c3a  .`.......'.Z..|:
 1320 00000026 40280000 6f110000 b00b0000  ...&@(..o.......
 1330 27015a05 03583900 0027015b 05038c3a  '.Z..X9..'.[...:
 1340 00002701 5c0503c8 39000027 015d0208  ..'.\...9..'.]..
 1350 4000264c 28000060 110000c7 0b000027  @.&L(..`.......'
 1360 015a0503 a03a0000 00267c28 00007a11  .Z...:...&|(..z.
 1370 0000de0b 00002701 5a0503b0 3a000000  ......'.Z...:...
 1380 26a82800 006f1100 000d0c00 0027015a  &.(..o.......'.Z
 1390 05035839 00002701 5b0503b4 3a000027  ..X9..'.[...:..'
 13a0 015c0503 c8390000 27015d02 08470026  .\...9..'.]..G.&
 13b0 e0280000 6f110000 3c0c0000 27015a05  .(..o...<...'.Z.
 13c0 03583900 0027015b 0503c83a 00002701  .X9..'.[...:..'.
 13d0 5c0503c8 39000027 015d0208 490026ec  \...9..'.]..I.&.
 13e0 28000060 11000053 0c000027 015a0503  (..`...S...'.Z..
 13f0 dc3a0000 00262c29 00006f11 0000820c  .:...&,)..o.....
 1400 00002701 5a050358 39000027 015b0503  ..'.Z..X9..'.[..
 1410 f83a0000 27015c05 03c83900 0027015d  .:..'.\...9..'.]
 1420 02084e00 26382900 00601100 00990c00  ..N.&8)..`......
 1430 0027015a 05030c3b 00000026 68290000  .'.Z...;...&h)..
 1440 6f110000 c80c0000 27015a05 03583900  o.......'.Z..X9.
 1450 0027015b 0503243b 00002701 5c0503c8  .'.[..$;..'.\...
 1460 39000027 015d0208 520026a4 29000060  9..'.]..R.&.)..`
 1470 110000df 0c000027 015a0503 543b0000  .......'.Z..T;..
 1480 0026d829 00006f11 00000e0d 00002701  .&.)..o.......'.
 1490 5a050358 39000027 015b0503 643b0000  Z..X9..'.[..d;..
 14a0 27015c05 03c83900 0027015d 02085c00  '.\...9..'.]..\.
 14b0 26102a00 006f1100 003d0d00 0027015a  &.*..o...=...'.Z
 14c0 05035839 00002701 5b050378 3b000027  ..X9..'.[..x;..'
 14d0 015c0503 c8390000 27015d02 085e0026  .\...9..'.]..^.&
 14e0 402a0000 6f110000 6c0d0000 27015a05  @*..o...l...'.Z.
 14f0 03583900 0027015b 0503883b 00002701  .X9..'.[...;..'.
 1500 5c0503c8 39000027 015d0208 60002674  \...9..'.]..`.&t
 1510 2a00006f 1100009b 0d000027 015a0503  *..o.......'.Z..
 1520 58390000 27015b05 039c3b00 0027015c  X9..'.[...;..'.\
 1530 0503c839 00002701 5d020861 0026b02a  ...9..'.]..a.&.*
 1540 00006f11 0000ca0d 00002701 5a050358  ..o.......'.Z..X
 1550 39000027 015b0503 9c3b0000 27015c05  9..'.[...;..'.\.
 1560 03c83900 0027015d 02086500 26d82a00  ..9..'.]..e.&.*.
 1570 00601100 00e10d00 0027015a 0503d83b  .`.......'.Z...;
 1580 00000026 0c2b0000 6f110000 100e0000  ...&.+..o.......
 1590 27015a05 03583900 0027015b 0503643b  '.Z..X9..'.[..d;
 15a0 00002701 5c0503c8 39000027 015d0208  ..'.\...9..'.]..
 15b0 6e00263c 2b00006f 1100003f 0e000027  n.&<+..o...?...'
 15c0 015a0503 58390000 27015b05 03e83b00  .Z..X9..'.[...;.
 15d0 0027015c 0503c839 00002701 5d020870  .'.\...9..'.]..p
 15e0 0026682b 00006f11 00006e0e 00002701  .&h+..o...n...'.
 15f0 5a050358 39000027 015b0503 f43b0000  Z..X9..'.[...;..
 1600 27015c05 03c83900 0027015d 02087200  '.\...9..'.]..r.
 1610 26942b00 006f1100 009d0e00 0027015a  &.+..o.......'.Z
 1620 05035839 00002701 5b050304 3c000027  ..X9..'.[...<..'
 1630 015c0503 c8390000 27015d02 08730026  .\...9..'.]..s.&
 1640 c02b0000 6f110000 cc0e0000 27015a05  .+..o.......'.Z.
 1650 03583900 0027015b 0503143c 00002701  .X9..'.[...<..'.
 1660 5c0503c8 39000027 015d0208 740026ec  \...9..'.]..t.&.
 1670 2b00006f 110000fb 0e000027 015a0503  +..o.......'.Z..
 1680 58390000 27015b05 03243c00 0027015c  X9..'.[..$<..'.\
 1690 0503c839 00002701 5d020875 0026242c  ...9..'.]..u.&$,
 16a0 00006f11 00002a0f 00002701 5a050358  ..o...*...'.Z..X
 16b0 39000027 015b0503 343c0000 27015c05  9..'.[..4<..'.\.
 16c0 03c83900 0027015d 02087800 265c2c00  ..9..'.]..x.&\,.
 16d0 006f1100 00590f00 0027015a 05035839  .o...Y...'.Z..X9
 16e0 00002701 5b050348 3c000027 015c0503  ..'.[..H<..'.\..
 16f0 c8390000 27015d02 087a0026 942c0000  .9..'.]..z.&.,..
 1700 6f110000 880f0000 27015a05 03583900  o.......'.Z..X9.
 1710 0027015b 05035c3c 00002701 5c0503c8  .'.[..\<..'.\...
 1720 39000027 015d0208 7c0026cc 2c00006f  9..'.]..|.&.,..o
 1730 110000b7 0f000027 015a0503 58390000  .......'.Z..X9..
 1740 27015b05 03703c00 0027015c 0503c839  '.[..p<..'.\...9
 1750 00002701 5d02087e 0026d82c 00006011  ..'.]..~.&.,..`.
 1760 0000ce0f 00002701 5a050384 3c000000  ......'.Z...<...
 1770 26402d00 006f1100 00fd0f00 0027015a  &@-..o.......'.Z
 1780 05035839 00002701 5b0503b0 3b000027  ..X9..'.[...;..'
 1790 015c0503 c8390000 27015d02 08690026  .\...9..'.]..i.&
 17a0 682d0000 6f110000 2c100000 27015a05  h-..o...,...'.Z.
 17b0 03583900 0027015b 0503c43b 00002701  .X9..'.[...;..'.
 17c0 5c0503c8 39000027 015d0208 6a00268c  \...9..'.]..j.&.
 17d0 2d00006f 1100005b 10000027 015a0503  -..o...[...'.Z..
 17e0 58390000 27015b05 03483b00 0027015c  X9..'.[..H;..'.\
 17f0 0503c839 00002701 5d020858 0026b02d  ...9..'.]..X.&.-
 1800 00006f11 00008a10 00002701 5a050358  ..o.......'.Z..X
 1810 39000027 015b0503 403b0000 27015c05  9..'.[..@;..'.\.
 1820 03c83900 0027015d 02085700 26d42d00  ..9..'.]..W.&.-.
 1830 006f1100 00b91000 0027015a 05035839  .o.......'.Z..X9
 1840 00002701 5b050334 3b000027 015c0503  ..'.[..4;..'.\..
 1850 c8390000 27015d02 08550026 f82d0000  .9..'.]..U.&.-..
 1860 6f110000 e8100000 27015a05 03583900  o.......'.Z..X9.
 1870 0027015b 05032c3b 00002701 5c0503c8  .'.[..,;..'.\...
 1880 39000027 015d0208 5400261c 2e00006f  9..'.]..T.&....o
 1890 11000017 11000027 015a0503 58390000  .......'.Z..X9..
 18a0 27015b05 03e03900 0027015c 0503c839  '.[...9..'.\...9
 18b0 00002701 5d020821 00262c2e 00006011  ..'.]..!.&,...`.
 18c0 00002e11 00002701 5a050394 3c000000  ......'.Z...<...
 18d0 284c2e00 006f1100 0027015a 05035839  (L...o...'.Z..X9
 18e0 00002701 5b05039c 3a000027 015c0503  ..'.[...:..'.\..
 18f0 c8390000 27015d02 08850000 10043a00  .9..'.].......:.
 1900 00002933 01000029 01000008 00330100  ..)3...).....3..
 1910 002a1002 00001002 00000604 2aff0100  .*..........*...
 1920 00ff0100 0007c800                    ........        
Contents of section .debug_abbrev:
 0000 01110010 06110112 01030e1b 0e250e13  .............%..
 0010 05000000 01110125 0e130b03 0e1b0e11  .......%........
 0020 01120610 17000002 2e013f19 030e3a0b  ..........?...:.
 0030 3b0b2719 11011206 40189742 19011300  ;.'.....@..B....
 0040 00032e01 3f19030e 3a0b3b0b 49133c19  ....?...:.;.I.<.
 0050 01130000 04180000 00058982 01001101  ................
 0060 31130000 06898201 00110195 42193113  1...........B.1.
 0070 00000724 000b0b3e 0b030800 00082e00  ...$...>........
 0080 3f193c19 6e0e030e 3a0b3b0b 00000001  ?.<.n...:.;.....
 0090 1101250e 130b030e 1b0e1101 12061017  ..%.............
 00a0 00000224 000b0b3e 0b030e00 00031600  ...$...>........
 00b0 030e3a0b 3b0b4913 00000424 000b0b3e  ..:.;.I....$...>
 00c0 0b030800 00051301 030e0b0b 3a0b3b0b  ............:.;.
 00d0 01130000 060d0003 083a0b3b 0b491338  .........:.;.I.8
 00e0 0b000007 0d00030e 3a0b3b0b 4913380b  ........:.;.I.8.
 00f0 00000801 01491301 13000009 21004913  .....I......!.I.
 0100 2f0b0000 0a0f000b 0b491300 000b1501  /........I......
 0110 27194913 01130000 0c050049 1300000d  '.I........I....
 0120 3400030e 3a0b3b0b 49130218 00000e2e  4...:.;.I.......
 0130 013f1903 0e3a0b3b 0b271911 01120640  .?...:.;.'.....@
 0140 18974219 01130000 0f050003 083a0b3b  ..B..........:.;
 0150 0b491302 17000010 2e013f19 030e3a0b  .I........?...:.
 0160 3b0b2719 49133c19 01130000 11180000  ;.'.I.<.........
 0170 00120b01 11011206 01130000 13340003  .............4..
 0180 083a0b3b 0b491302 17000014 89820101  .:.;.I..........
 0190 11013113 0000158a 82010002 18914218  ..1...........B.
 01a0 00001626 00491300 00172e01 3f19030e  ...&.I......?...
 01b0 3a0b3b0b 27194913 11011206 40180113  :.;.'.I.....@...
 01c0 00001805 00030e3a 0b3b0b49 13021800  .......:.;.I....
 01d0 00192e00 3f193c19 6e0e030e 3a0b3b0b  ....?.<.n...:.;.
 01e0 00001a2e 003f193c 196e0e03 0e3a0b3b  .....?.<.n...:.;
 01f0 0b6e0e00 00000111 01250e13 0b030e1b  .n.......%......
 0200 0e110112 06101700 00022e01 3f19030e  ............?...
 0210 3a0b3b0b 27191101 12064018 97421901  :.;.'.....@..B..
 0220 13000003 05000308 3a0b3b0b 49130217  ........:.;.I...
 0230 0000041d 01311352 01551758 0b590b00  .....1.R.U.X.Y..
 0240 00050500 31130217 0000060b 01551700  ....1........U..
 0250 00073400 31130217 0000080f 000b0b49  ..4.1..........I
 0260 13000009 24000b0b 3e0b030e 00000a2e  ....$...>.......
 0270 003f1903 0e3a0b3b 0b271911 01120640  .?...:.;.'.....@
 0280 18974219 00000b2e 003f1903 0e3a0b3b  ..B......?...:.;
 0290 0b271949 13110112 06401897 42190000  .'.I.....@..B...
 02a0 0c24000b 0b3e0b03 0800000d 2e013f19  .$...>........?.
 02b0 030e3a0b 3b0b2719 4913200b 01130000  ..:.;.'.I. .....
 02c0 0e050003 083a0b3b 0b491300 000f2e01  .....:.;.I......
 02d0 030e3a0b 3b0b2719 200b0113 00001034  ..:.;.'. ......4
 02e0 0003083a 0b3b0b49 13000011 2e013113  ...:.;.I......1.
 02f0 11011206 40189742 19000012 1d013113  ....@..B......1.
 0300 11011206 580b590b 0000130b 01110112  ....X.Y.........
 0310 06000000 01110125 0e130b03 0e1b0e11  .......%........
 0320 01120610 17000002 1600030e 3a0b3b0b  ............:.;.
 0330 49130000 0324000b 0b3e0b03 0e000004  I....$...>......
 0340 2e003f19 030e3a0b 3b0b2719 4913200b  ..?...:.;.'.I. .
 0350 0000052e 013f1903 0e3a0b3b 0b271911  .....?...:.;.'..
 0360 01120640 18964219 01130000 06050003  ...@..B.........
 0370 0e3a0b3b 0b491302 17000007 34000308  .:.;.I......4...
 0380 3a0b3b0b 49130000 081d0131 13110112  :.;.I......1....
 0390 06580b59 0b011300 00091d01 31131101  .X.Y........1...
 03a0 1206580b 590b0000 0a0b0111 01120600  ..X.Y...........
 03b0 000b3400 31130000 0c050031 1300000d  ..4.1......1....
 03c0 24000b0b 3e0b0308 00000e2e 003f1903  $...>........?..
 03d0 0e3a0b3b 0b271911 01120640 18974219  .:.;.'.....@..B.
 03e0 00000f2e 01030e3a 0b3b0b27 19491320  .......:.;.'.I. 
 03f0 0b011300 00103400 030e3a0b 3b0b4913  ......4...:.;.I.
 0400 00001105 0003083a 0b3b0b49 13000012  .......:.;.I....
 0410 2e013113 11011206 40189642 19000000  ..1.....@..B....
 0420 01110125 0e130b03 0e1b0e11 01120610  ...%............
 0430 17000002 2e013f19 030e3a0b 3b0b2719  ......?...:.;.'.
 0440 11011206 40189742 19011300 00030500  ....@..B........
 0450 030e3a0b 3b0b4913 02170000 042e013f  ..:.;.I........?
 0460 19030e3a 0b3b0b27 1949133c 19011300  ...:.;.'.I.<....
 0470 00050500 49130000 06180000 00071d01  ....I...........
 0480 31131101 1206580b 590b0113 00000805  1.....X.Y.......
 0490 00311302 17000009 0b011101 12060000  .1..............
 04a0 0a340031 13021700 000b8982 01011101  .4.1............
 04b0 31130000 0c8a8201 00021891 42180000  1...........B...
 04c0 0d0f000b 0b491300 000e2400 0b0b3e0b  .....I....$...>.
 04d0 030e0000 0f260049 13000010 24000b0b  .....&.I....$...
 04e0 3e0b0308 0000112e 01030e3a 0b3b0b27  >..........:.;.'
 04f0 19200b01 13000012 0500030e 3a0b3b0b  . ..........:.;.
 0500 49130000 13340003 083a0b3b 0b491300  I....4...:.;.I..
 0510 00142e00 3f193c19 6e0e030e 3a0b3b0b  ....?.<.n...:.;.
 0520 00000001 1101250e 130b030e 1b0e5517  ......%.......U.
 0530 11011017 00000224 000b0b3e 0b030e00  .......$...>....
 0540 00033500 49130000 0424000b 0b3e0b03  ..5.I....$...>..
 0550 08000005 1600030e 3a0b3b0b 49130000  ........:.;.I...
 0560 06160003 0e3a0b3b 05491300 00071701  .....:.;.I......
 0570 0b0b3a0b 3b0b0113 0000080d 00030e3a  ..:.;..........:
 0580 0b3b0b49 13000009 01014913 01130000  .;.I......I.....
 0590 0a210049 132f0b00 000b1301 0b0b3a0b  .!.I./........:.
 05a0 3b0b0113 00000c0d 00030e3a 0b3b0b49  ;..........:.;.I
 05b0 13380b00 000d0f00 0b0b0000 0e130103  .8..............
 05c0 0e0b0b3a 0b3b0b01 1300000f 0d000308  ...:.;..........
 05d0 3a0b3b0b 4913380b 0000100f 000b0b49  :.;.I.8........I
 05e0 13000011 1301030e 0b053a0b 3b0b0113  ..........:.;...
 05f0 0000120d 00030e3a 0b3b0b49 13380500  .......:.;.I.8..
 0600 00131500 27190000 14150127 19491301  ....'......'.I..
 0610 13000015 05004913 00001626 00491300  ......I....&.I..
 0620 00171301 030e0b05 3a0b3b05 01130000  ........:.;.....
 0630 180d0003 0e3a0b3b 05491338 0b000019  .....:.;.I.8....
 0640 0d00030e 3a0b3b05 49133805 00001a13  ....:.;.I.8.....
 0650 01030e0b 0b3a0b3b 05011300 001b1301  .....:.;........
 0660 0b0b3a0b 3b050113 00001c17 010b0b3a  ..:.;..........:
 0670 0b3b0501 1300001d 0d00030e 3a0b3b05  .;..........:.;.
 0680 49130000 1e130003 0e3c1900 001f1501  I........<......
 0690 27190113 00002034 00030e3a 0b3b0549  '..... 4...:.;.I
 06a0 133f193c 19000021 34000308 3a0b3b0b  .?.<...!4...:.;.
 06b0 49133f19 02180000 22340003 0e3a0b3b  I.?....."4...:.;
 06c0 0b49133f 19021800 00232e01 3f19030e  .I.?.....#..?...
 06d0 3a0b3b0b 27194913 11011206 40189642  :.;.'.I.....@..B
 06e0 19011300 00243400 03083a0b 3b0b4913  .....$4...:.;.I.
 06f0 02170000 25340003 083a0b3b 0b491300  ....%4...:.;.I..
 0700 00268982 01011101 31130113 0000278a  .&......1.....'.
 0710 82010002 18914218 00002889 82010111  ......B...(.....
 0720 01311300 00292e00 3f193c19 6e0e030e  .1...)..?.<.n...
 0730 3a0b3b0b 6e0e0000 2a2e003f 193c196e  :.;.n...*..?.<.n
 0740 0e030e3a 0b3b0b00 0000               ...:.;....      
Contents of section .debug_aranges:
 0000 1c000000 02000000 00000400 00000000  ................
 0010 00200000 b0020000 00000000 00000000  . ..............
 0020 1c000000 02002600 00000400 00000000  ......&.........
 0030 b0220000 20000000 00000000 00000000  .".. ...........
 0040 1c000000 0200a200 00000400 00000000  ................
 0050 d0220000 5c010000 00000000 00000000  ."..\...........
 0060 1c000000 02008403 00000400 00000000  ................
 0070 2c240000 4c000000 00000000 00000000  ,$..L...........
 0080 1c000000 0200e804 00000400 00000000  ................
 0090 78240000 84000000 00000000 00000000  x$..............
 00a0 1c000000 02006706 00000400 00000000  ......g.........
 00b0 fc240000 38000000 00000000 00000000  .$..8...........
 00c0 1c000000 0200a207 00000400 00000000  ................
 00d0 34250000 1c090000 00000000 00000000  4%..............
Contents of section .debug_str:
 0000 2f686f6d 652f726f 622f7265 706f2f72  /home/rob/repo/r
 0010 69736376 2d722f70 6c617466 6f726d2f  iscv-r/platform/
 0020 6d616368 696e652d 73696d2f 626f6f74  machine-sim/boot
 0030 2e53002f 686f6d65 2f726f62 2f726570  .S./home/rob/rep
 0040 6f2f7269 7363762d 722f7377 2f737464  o/riscv-r/sw/std
 0050 5f746573 7400474e 55204153 20322e32  _test.GNU AS 2.2
 0060 3900474e 55204331 3120372e 322e3020  9.GNU C11 7.2.0 
 0070 2d6d6172 63683d72 76333269 202d6d61  -march=rv32i -ma
 0080 62693d69 6c703332 202d6720 2d4f3200  bi=ilp32 -g -O2.
 0090 2f686f6d 652f726f 622f7265 706f2f72  /home/rob/repo/r
 00a0 69736376 2d722f70 6c617466 6f726d2f  iscv-r/platform/
 00b0 6d616368 696e652d 73696d2f 696e6974  machine-sim/init
 00c0 2e630070 72696e74 665f7265 67697374  .c.printf_regist
 00d0 65720073 65726961 6c5f696e 69740073  er.serial_init.s
 00e0 74617475 73006578 63657074 696f6e5f  tatus.exception_
 00f0 7365745f 73797363 616c6c5f 68616e64  set_syscall_hand
 0100 6c657200 65786365 7074696f 6e5f7365  ler.exception_se
 0110 745f6972 715f6861 6e646c65 72006670  t_irq_handler.fp
 0120 5f737973 63616c6c 005f5f62 75696c74  _syscall.__built
 0130 696e5f70 75747300 66705f69 72710075  in_puts.fp_irq.u
 0140 6e736967 6e656420 63686172 002f686f  nsigned char./ho
 0150 6d652f72 6f622f72 65706f2f 72697363  me/rob/repo/risc
 0160 762d722f 706c6174 666f726d 2f6d6163  v-r/platform/mac
 0170 68696e65 2d73696d 2f657863 65707469  hine-sim/excepti
 0180 6f6e2e63 0073686f 72742075 6e736967  on.c.short unsig
 0190 6e656420 696e7400 65786365 7074696f  ned int.exceptio
 01a0 6e5f6475 6d705f63 74780069 72715f63  n_dump_ctx.irq_c
 01b0 6f6e7465 7874005f 5f75696e 7433325f  ontext.__uint32_
 01c0 74006578 63657074 696f6e5f 68616e64  t.exception_hand
 01d0 6c657200 6c6f6e67 206c6f6e 6720756e  ler.long long un
 01e0 7369676e 65642069 6e740063 61757365  signed int.cause
 01f0 006c6f6e 67206c6f 6e672069 6e740070  .long long int.p
 0200 72696e74 66007368 6f727420 696e7400  rintf.short int.
 0210 61737365 72745f68 616e646c 65720073  assert_handler.s
 0220 65726961 6c5f6765 74636861 72007365  erial_getchar.se
 0230 7269616c 5f707574 63686172 00736572  rial_putchar.ser
 0240 69616c5f 68617363 68617200 73657269  ial_haschar.seri
 0250 616c5f70 75747374 72002f68 6f6d652f  al_putstr./home/
 0260 726f622f 7265706f 2f726973 63762d72  rob/repo/riscv-r
 0270 2f706c61 74666f72 6d2f6d61 6368696e  /platform/machin
 0280 652d7369 6d2f7365 7269616c 2e630073  e-sim/serial.c.s
 0290 696d5f70 75746300 74696d65 725f6469  im_putc.timer_di
 02a0 66660074 5f74696d 65007469 6d65725f  ff.t_time.timer_
 02b0 696e6974 0074696d 65725f73 6c656570  init.timer_sleep
 02c0 0074696d 65725f6e 6f77002f 686f6d65  .timer_now./home
 02d0 2f726f62 2f726570 6f2f7269 7363762d  /rob/repo/riscv-
 02e0 722f706c 6174666f 726d2f6d 61636869  r/platform/machi
 02f0 6e652d73 696d2f74 696d6572 2e630063  ne-sim/timer.c.c
 0300 70755f74 696d6572 5f676574 5f636f75  pu_timer_get_cou
 0310 6e740074 696d654d 73007479 70650065  nt.timeMs.type.e
 0320 78697463 6f646500 72656173 6f6e0073  xitcode.reason.s
 0330 696d5f65 78697400 6c696e65 002f686f  im_exit.line./ho
 0340 6d652f72 6f622f72 65706f2f 72697363  me/rob/repo/risc
 0350 762d722f 706c6174 666f726d 2f6d6163  v-r/platform/mac
 0360 68696e65 2d73696d 2f617373 6572742e  hine-sim/assert.
 0370 63005f64 736f5f68 616e646c 65005f73  c._dso_handle._s
 0380 697a6500 5f72616e 64343800 5f656d65  ize._rand48._eme
 0390 7267656e 6379005f 64617461 005f7763  rgency._data._wc
 03a0 72746f6d 625f7374 61746500 5f776373  rtomb_state._wcs
 03b0 72746f6d 62735f73 74617465 006c6f6e  rtombs_state.lon
 03c0 67766172 005f6c62 6673697a 65005f5f  gvar._lbfsize.__
 03d0 6c6f6361 6c655f74 005f6d62 72746f77  locale_t._mbrtow
 03e0 635f7374 61746500 5f776374 6f6d625f  c_state._wctomb_
 03f0 73746174 65005f5f 746d5f73 6563005f  state.__tm_sec._
 0400 75627566 005f6261 7365005f 5f746d5f  ubuf._base.__tm_
 0410 686f7572 005f5f73 66005f6f 6e5f6578  hour.__sf._on_ex
 0420 69745f61 72677300 5f636f6f 6b696500  it_args._cookie.
 0430 5f5f7367 6c756500 5f666c61 6773005f  __sglue._flags._
 0440 69735f63 7861005f 73746469 6e005f62  is_cxa._stdin._b
 0450 6c6b7369 7a65005f 63767462 7566005f  lksize._cvtbuf._
 0460 6f666673 6574005f 6d627372 746f7763  offset._mbsrtowc
 0470 735f7374 61746500 5f6d6272 6c656e5f  s_state._mbrlen_
 0480 73746174 65005f66 6e617267 73005f66  state._fnargs._f
 0490 6e73005f 7369676e 005f666c 6f636b5f  ns._sign._flock_
 04a0 74005f73 74646572 72005f42 6967696e  t._stderr._Bigin
 04b0 74005f67 616d6d61 5f736967 6e67616d  t._gamma_signgam
 04c0 005f7265 6164005f 72657375 6c745f6b  ._read._result_k
 04d0 005f5f74 6d005f5f 77636862 005f7374  .__tm.__wchb._st
 04e0 646f7574 005f6376 746c656e 005f6669  dout._cvtlen._fi
 04f0 6c65005f 6e696f62 73005f61 74657869  le._niobs._atexi
 0500 7430005f 7369676e 616c5f62 7566005f  t0._signal_buf._
 0510 61736374 696d655f 62756600 5f726573  asctime_buf._res
 0520 756c7400 5f5f7763 68006d61 696e2e63  ult.__wch.main.c
 0530 0077696e 745f7400 5f6c6f63 6b005f66  .wint_t._lock._f
 0540 6c616773 32005f77 72697465 005f5f74  lags2._write.__t
 0550 6d5f7965 6172005f 6e6d616c 6c6f6300  m_year._nmalloc.
 0560 6c6f6e67 20646f75 626c6500 5f6e6578  long double._nex
 0570 74660075 76617200 5f5f746d 5f6d6f6e  tf.uvar.__tm_mon
 0580 005f6174 65786974 005f5f73 64696469  ._atexit.__sdidi
 0590 6e697400 5f6f6666 5f74005f 66726565  nit._off_t._free
 05a0 6c697374 005f4c4f 434b5f52 45435552  list._LOCK_RECUR
 05b0 53495645 5f54005f 6e657700 5f685f65  SIVE_T._new._h_e
 05c0 72726e6f 005f5f74 6d5f7964 6179005f  rrno.__tm_yday._
 05d0 5f736275 66005f69 6f627300 5f5f4649  _sbuf._iobs.__FI
 05e0 4c45005f 6d627374 6174655f 74005f5f  LE._mbstate_t.__
 05f0 7346494c 45005f6d 62737461 7465005f  sFILE._mbstate._
 0600 72616e64 5f6e6578 74005f6d 626c656e  rand_next._mblen
 0610 5f737461 7465005f 696e6300 5f696e64  _state._inc._ind
 0620 005f6c6f 63616c65 005f5f63 6c65616e  ._locale.__clean
 0630 7570005f 756e7370 65636966 6965645f  up._unspecified_
 0640 6c6f6361 6c655f69 6e666f00 5f6d6178  locale_info._max
 0650 77647300 5f726565 6e74005f 73656564  wds._reent._seed
 0660 005f5f63 6f756e74 005f5f76 616c7565  .__count.__value
 0670 005f7365 656b005f 66706f73 5f74005f  ._seek._fpos_t._
 0680 5f746d5f 6d696e00 5f6d756c 74005f73  _tm_min._mult._s
 0690 7472746f 6b5f6c61 7374005f 666e7479  trtok_last._fnty
 06a0 70657300 5f616464 00737973 63616c6c  pes._add.syscall
 06b0 5f646f6e 65005f5f 554c6f6e 67005f67  _done.__ULong._g
 06c0 65746461 74655f65 7272005f 676c6f62  etdate_err._glob
 06d0 616c5f69 6d707572 655f7074 72005f75  al_impure_ptr._u
 06e0 6e757365 645f7261 6e64005f 77647300  nused_rand._wds.
 06f0 5f5f746d 5f776461 79005f67 6c756500  __tm_wday._glue.
 0700 5f737369 7a655f74 005f6c36 34615f62  _ssize_t._l64a_b
 0710 7566005f 7369675f 66756e63 005f6e62  uf._sig_func._nb
 0720 7566005f 756e7573 6564005f 5f746d5f  uf._unused.__tm_
 0730 69736473 74005f6c 6f63616c 74696d65  isdst._localtime
 0740 5f627566 005f636c 6f736500 5f723438  _buf._close._r48
 0750 005f6d62 746f7763 5f737461 7465005f  ._mbtowc_state._
 0760 70357300 6d61696e 005f5f74 6d5f6d64  p5s.main.__tm_md
 0770 617900                               ay.             
Contents of section .comment:
 0000 4743433a 2028474e 55292037 2e322e30  GCC: (GNU) 7.2.0
 0010 00474343 3a202847 4e552920 362e312e  .GCC: (GNU) 6.1.
 0020 3000                                 0.              
Contents of section .debug_frame:
 0000 0c000000 ffffffff 0100017c 010d0200  ...........|....
 0010 18000000 00000000 b0220000 20000000  .........".. ...
 0020 440e1044 810148c1 4c0e0000 0c000000  D..D..H.L.......
 0030 ffffffff 0100017c 010d0200 0c000000  .......|........
 0040 2c000000 d0220000 0c000000 0c000000  ,...."..........
 0050 2c000000 dc220000 0c000000 28000000  ,...."......(...
 0060 2c000000 e8220000 c8000000 580e1050  ,...."......X..P
 0070 88028101 740ac844 c1440e00 440b680a  ....t..D.D..D.h.
 0080 c144c844 0e00440b 28000000 2c000000  .D.D..D.(...,...
 0090 b0230000 7c000000 440e2050 89035c88  .#..|...D. P..\.
 00a0 02920493 05810174 c144c844 c944d244  .......t.D.D.D.D
 00b0 d3440e00 0c000000 ffffffff 0100017c  .D.............|
 00c0 010d0200 0c000000 b4000000 2c240000  ............,$..
 00d0 14000000 0c000000 b4000000 40240000  ............@$..
 00e0 08000000 0c000000 b4000000 48240000  ............H$..
 00f0 08000000 0c000000 b4000000 50240000  ............P$..
 0100 04000000 0c000000 b4000000 54240000  ............T$..
 0110 24000000 0c000000 ffffffff 0100017c  $..............|
 0120 010d0200 0c000000 14010000 78240000  ............x$..
 0130 04000000 24000000 14010000 7c240000  ....$.......|$..
 0140 5c000000 440e1050 92048101 88028903  \...D..P........
 0150 74c144c8 44c944d2 440e0000 18000000  t.D.D.D.D.......
 0160 14010000 d8240000 24000000 440e1044  .....$..$...D..D
 0170 810154c1 440e0000 0c000000 ffffffff  ..T.D...........
 0180 0100017c 010d0200 18000000 78010000  ...|........x...
 0190 fc240000 38000000 580e1048 810150c1  .$..8...X..H..P.
 01a0 440e0000 0c000000 ffffffff 0100017c  D..............|
 01b0 010d0200 2c000000 a4010000 34250000  ....,.......4%..
 01c0 1c090000 480e2058 81018802 89039204  ....H. X........
 01d0 930503b0 070ac144 c844c944 d244d348  .......D.D.D.D.H
 01e0 0e00440b                             ..D.            
Contents of section .debug_loc:
 0000 e0000000 fc000000 01005afc 00000014  ..........Z.....
 0010 01000001 00591401 00002401 00000300  .....Y....$.....
 0020 79749f24 0100005c 01000004 00f3015a  yt.$...\.......Z
 0030 9f000000 00000000 00180100 00240100  .............$..
 0040 00020030 9f240100 00340100 00010058  ...0.$...4.....X
 0050 34010000 37010000 01005b37 01000038  4...7.....[7...8
 0060 01000003 00787f9f 38010000 48010000  .....x..8...H...
 0070 01005800 00000000 00000018 0000007f  ..X.............
 0080 00000001 005a7f00 00008000 00000400  .....Z..........
 0090 f3015a9f 80000000 a0000000 010058b4  ..Z...........X.
 00a0 000000e0 00000001 00580000 00000000  .........X......
 00b0 00002800 00003800 00000100 5a380000  ..(...8.....Z8..
 00c0 004c0000 0001005a 00000000 00000000  .L.....Z........
 00d0 38000000 3c000000 01005f00 00000000  8...<....._.....
 00e0 00000038 0000003c 00000006 007f0008  ...8...<........
 00f0 ff1a9f00 00000000 00000038 0000003c  ...........8...<
 0100 0000000a 007f0008 ff1a4044 24219f00  ..........@D$!..
 0110 00000000 00000000 00000008 00000001  ................
 0120 005a0800 00001400 00000400 f3015a9f  .Z............Z.
 0130 00000000 00000000 00000000 08000000  ................
 0140 06007a00 08ff1a9f 08000000 0c000000  ..z.............
 0150 0700f301 5a08ff1a 9f000000 00000000  ....Z...........
 0160 00000000 00080000 000a007a 0008ff1a  ...........z....
 0170 40442421 9f080000 000c0000 000b00f3  @D$!............
 0180 015a08ff 1a404424 219f0000 00000000  .Z...@D$!.......
 0190 00000400 00002000 00000100 5a200000  ...... .....Z ..
 01a0 00580000 00010062 58000000 60000000  .X.....bX...`...
 01b0 0400f301 5a9f0000 00000000 00000000  ....Z...........
 01c0 00001400 00000100 5a140000 00230000  ........Z....#..
 01d0 0001005b 23000000 38000000 0400f301  ...[#...8.......
 01e0 5a9f0000 00000000 00000000 00001000  Z...............
 01f0 00000100 5b100000 00230000 0001005c  ....[....#.....\
 0200 23000000 38000000 0400f301 5b9f0000  #...8.......[...
 0210 00000000 00000000 00000c00 00000100  ................
 0220 5c0c0000 00230000 0001005d 23000000  \....#.....]#...
 0230 38000000 0400f301 5c9f0000 00000000  8.......\.......
 0240 00000000 00000800 00000100 5d080000  ............]...
 0250 00230000 0001005e 23000000 38000000  .#.....^#...8...
 0260 0400f301 5d9f0000 00000000 00002400  ....].........$.
 0270 00002c00 00000300 09ff9f00 00000000  ..,.............
 0280 00000024 0000002c 00000003 0008ff9f  ...$...,........
 0290 00000000 00000000 68290000 80290000  ........h)...)..
 02a0 02003a9f 80290000 b42d0000 030009fd  ..:..)...-......
 02b0 9fb42d00 00fc2d00 0002003a 9f202e00  ..-...-....:. ..
 02c0 00502e00 00030009 fd9f0000 00000000  .P..............
 02d0 0000dc29 0000e829 00000100 5e000000  ...)...)....^...
 02e0 00000000 00102a00 00402a00 00060003  ......*..@*.....
 02f0 fe3c0000 9f402a00 00742a00 00060003  .<...@*..t*.....
 0300 003d0000 9f742a00 00842a00 00060003  .=...t*...*.....
 0310 fc3c0000 9f842a00 00b02a00 00060003  .<....*...*.....
 0320 003d0000 9fb02a00 00cc2a00 00060003  .=....*...*.....
 0330 fe3c0000 9f202d00 00402d00 00060003  .<... -..@-.....
 0340 fe3c0000 9f402d00 006c2d00 00060003  .<...@-..l-.....
 0350 003d0000 9f000000 00000000 00102b00  .=............+.
 0360 003b2b00 0001005f 00000000 00000000  .;+...._........
 0370 3c2b0000 682b0000 060003fd 3c00009f  <+..h+......<...
 0380 682b0000 942b0000 060003fe 3c00009f  h+...+......<...
 0390 942b0000 c02b0000 060003ff 3c00009f  .+...+......<...
 03a0 c02b0000 ec2b0000 06000300 3d00009f  .+...+......=...
 03b0 ec2b0000 242c0000 060003fd 3c00009f  .+..$,......<...
 03c0 242c0000 5c2c0000 060003fe 3c00009f  $,..\,......<...
 03d0 5c2c0000 942c0000 060003ff 3c00009f  \,...,......<...
 03e0 942c0000 202d0000 06000300 3d00009f  .,.. -......=...
 03f0 202e0000 502e0000 06000300 3d00009f   ...P.......=...
 0400 00000000 00000000                    ........        
Contents of section .debug_ranges:
 0000 30000000 34000000 38000000 40000000  0...4...8...@...
 0010 00000000 00000000 30000000 34000000  ........0...4...
 0020 38000000 40000000 00000000 00000000  8...@...........
 0030 30000000 34000000 38000000 40000000  0...4...8...@...
 0040 00000000 00000000 34250000 502e0000  ........4%..P...
 0050 00000000 00000000                    ........        

Disassembly of section .text:

00002000 <boot_vector>:
    2000:	2580006f          	j	2258 <start>
    2004:	0000                	unimp
	...

00002008 <ipc_vector>:
	...
    2010:	1140006f          	j	2124 <isr_vector>
	...

00002020 <arg_argc>:
    2020:	0000                	unimp
	...

00002024 <arg_argv>:
	...

00002124 <isr_vector>:
    2124:	f7410113          	add	sp,sp,-140
    2128:	09f12423          	sw	t6,136(sp)
    212c:	09e12223          	sw	t5,132(sp)
    2130:	09d12023          	sw	t4,128(sp)
    2134:	07c12e23          	sw	t3,124(sp)
    2138:	07b12c23          	sw	s11,120(sp)
    213c:	07a12a23          	sw	s10,116(sp)
    2140:	07912823          	sw	s9,112(sp)
    2144:	07812623          	sw	s8,108(sp)
    2148:	07712423          	sw	s7,104(sp)
    214c:	07612223          	sw	s6,100(sp)
    2150:	07512023          	sw	s5,96(sp)
    2154:	05412e23          	sw	s4,92(sp)
    2158:	05312c23          	sw	s3,88(sp)
    215c:	05212a23          	sw	s2,84(sp)
    2160:	05112823          	sw	a7,80(sp)
    2164:	05012623          	sw	a6,76(sp)
    2168:	04f12423          	sw	a5,72(sp)
    216c:	04e12223          	sw	a4,68(sp)
    2170:	04d12023          	sw	a3,64(sp)
    2174:	02c12e23          	sw	a2,60(sp)
    2178:	02b12c23          	sw	a1,56(sp)
    217c:	02a12a23          	sw	a0,52(sp)
    2180:	02912823          	sw	s1,48(sp)
    2184:	02812623          	sw	s0,44(sp)
    2188:	02712423          	sw	t2,40(sp)
    218c:	02612223          	sw	t1,36(sp)
    2190:	02512023          	sw	t0,32(sp)
    2194:	00412e23          	sw	tp,28(sp)
    2198:	00312c23          	sw	gp,24(sp)
    219c:	00212a23          	sw	sp,20(sp)
    21a0:	00112823          	sw	ra,16(sp)
    21a4:	34202473          	csrr	s0,mcause
    21a8:	00812423          	sw	s0,8(sp)
    21ac:	30002473          	csrr	s0,mstatus
    21b0:	00812223          	sw	s0,4(sp)
    21b4:	34102473          	csrr	s0,mepc
    21b8:	00812023          	sw	s0,0(sp)
    21bc:	00010513          	mv	a0,sp
    21c0:	128000ef          	jal	22e8 <exception_handler>
    21c4:	00050113          	mv	sp,a0
    21c8:	00012403          	lw	s0,0(sp)
    21cc:	34141073          	csrw	mepc,s0
    21d0:	00412403          	lw	s0,4(sp)
    21d4:	30041073          	csrw	mstatus,s0
    21d8:	01012083          	lw	ra,16(sp)
    21dc:	01812183          	lw	gp,24(sp)
    21e0:	01c12203          	lw	tp,28(sp)
    21e4:	02012283          	lw	t0,32(sp)
    21e8:	02412303          	lw	t1,36(sp)
    21ec:	02812383          	lw	t2,40(sp)
    21f0:	02c12403          	lw	s0,44(sp)
    21f4:	03012483          	lw	s1,48(sp)
    21f8:	03412503          	lw	a0,52(sp)
    21fc:	03812583          	lw	a1,56(sp)
    2200:	03c12603          	lw	a2,60(sp)
    2204:	04012683          	lw	a3,64(sp)
    2208:	04412703          	lw	a4,68(sp)
    220c:	04812783          	lw	a5,72(sp)
    2210:	04c12803          	lw	a6,76(sp)
    2214:	05012883          	lw	a7,80(sp)
    2218:	05412903          	lw	s2,84(sp)
    221c:	05812983          	lw	s3,88(sp)
    2220:	05c12a03          	lw	s4,92(sp)
    2224:	06012a83          	lw	s5,96(sp)
    2228:	06412b03          	lw	s6,100(sp)
    222c:	06812b83          	lw	s7,104(sp)
    2230:	06c12c03          	lw	s8,108(sp)
    2234:	07012c83          	lw	s9,112(sp)
    2238:	07412d03          	lw	s10,116(sp)
    223c:	07812d83          	lw	s11,120(sp)
    2240:	07c12e03          	lw	t3,124(sp)
    2244:	08012e83          	lw	t4,128(sp)
    2248:	08412f03          	lw	t5,132(sp)
    224c:	08812f83          	lw	t6,136(sp)
    2250:	08c10113          	add	sp,sp,140
    2254:	30200073          	mret

00002258 <start>:
    2258:	00005137          	lui	sp,0x5
    225c:	cf810113          	add	sp,sp,-776 # 4cf8 <_sp>
    2260:	000022b7          	lui	t0,0x2
    2264:	12428293          	add	t0,t0,292 # 2124 <isr_vector>
    2268:	30529073          	csrw	mtvec,t0
    226c:	000042b7          	lui	t0,0x4
    2270:	ce828293          	add	t0,t0,-792 # 3ce8 <_syscall_handler>
    2274:	00005337          	lui	t1,0x5
    2278:	d0830313          	add	t1,t1,-760 # 4d08 <_end>

0000227c <bss_clear>:
    227c:	0002a023          	sw	zero,0(t0)
    2280:	00428293          	add	t0,t0,4
    2284:	fe62cce3          	blt	t0,t1,227c <bss_clear>
    2288:	028000ef          	jal	22b0 <init>
    228c:	00002537          	lui	a0,0x2
    2290:	02050513          	add	a0,a0,32 # 2020 <arg_argc>
    2294:	00052503          	lw	a0,0(a0)
    2298:	000025b7          	lui	a1,0x2
    229c:	02458593          	add	a1,a1,36 # 2024 <arg_argv>
    22a0:	294000ef          	jal	2534 <main>

000022a4 <_exit>:
    22a4:	7b201073          	csrw	dscratch0,zero

000022a8 <_exit_loop>:
    22a8:	000000ef          	jal	22a8 <_exit_loop>

000022ac <simprintf>:
    22ac:	00008067          	ret

000022b0 <init>:
    22b0:	ff010113          	add	sp,sp,-16
    22b4:	00112623          	sw	ra,12(sp)
    22b8:	198000ef          	jal	2450 <serial_init>
    22bc:	00c12083          	lw	ra,12(sp)
    22c0:	00002537          	lui	a0,0x2
    22c4:	42c50513          	add	a0,a0,1068 # 242c <serial_putchar>
    22c8:	01010113          	add	sp,sp,16
    22cc:	5d10006f          	j	309c <printf_register>

000022d0 <exception_set_irq_handler>:
    22d0:	000047b7          	lui	a5,0x4
    22d4:	cea7a623          	sw	a0,-788(a5) # 3cec <_irq_handler>
    22d8:	00008067          	ret

000022dc <exception_set_syscall_handler>:
    22dc:	000047b7          	lui	a5,0x4
    22e0:	cea7a423          	sw	a0,-792(a5) # 3ce8 <_syscall_handler>
    22e4:	00008067          	ret

000022e8 <exception_handler>:
    22e8:	00452783          	lw	a5,4(a0)
    22ec:	ffffe737          	lui	a4,0xffffe
    22f0:	7ff70713          	add	a4,a4,2047 # ffffe7ff <_end+0xffff9af7>
    22f4:	00e7f7b3          	and	a5,a5,a4
    22f8:	00002737          	lui	a4,0x2
    22fc:	ff010113          	add	sp,sp,-16
    2300:	80070713          	add	a4,a4,-2048 # 1800 <boot_vector-0x800>
    2304:	00852683          	lw	a3,8(a0)
    2308:	00812423          	sw	s0,8(sp)
    230c:	00112623          	sw	ra,12(sp)
    2310:	00e7e7b3          	or	a5,a5,a4
    2314:	00f52223          	sw	a5,4(a0)
    2318:	00050413          	mv	s0,a0
    231c:	0606c463          	bltz	a3,2384 <exception_handler+0x9c>
    2320:	00800793          	li	a5,8
    2324:	02f69663          	bne	a3,a5,2350 <exception_handler+0x68>
    2328:	00052583          	lw	a1,0(a0)
    232c:	000047b7          	lui	a5,0x4
    2330:	ce87a303          	lw	t1,-792(a5) # 3ce8 <_syscall_handler>
    2334:	00458793          	add	a5,a1,4
    2338:	00f52023          	sw	a5,0(a0)
    233c:	06030263          	beqz	t1,23a0 <exception_handler+0xb8>
    2340:	00812403          	lw	s0,8(sp)
    2344:	00c12083          	lw	ra,12(sp)
    2348:	01010113          	add	sp,sp,16
    234c:	00030067          	jr	t1
    2350:	00004637          	lui	a2,0x4
    2354:	000045b7          	lui	a1,0x4
    2358:	00004537          	lui	a0,0x4
    235c:	03400693          	li	a3,52
    2360:	90860613          	add	a2,a2,-1784 # 3908 <__modsi3+0x74>
    2364:	94058593          	add	a1,a1,-1728 # 3940 <__modsi3+0xac>
    2368:	95850513          	add	a0,a0,-1704 # 3958 <__modsi3+0xc4>
    236c:	190000ef          	jal	24fc <assert_handler>
    2370:	00040513          	mv	a0,s0
    2374:	00c12083          	lw	ra,12(sp)
    2378:	00812403          	lw	s0,8(sp)
    237c:	01010113          	add	sp,sp,16
    2380:	00008067          	ret
    2384:	000047b7          	lui	a5,0x4
    2388:	cec7a303          	lw	t1,-788(a5) # 3cec <_irq_handler>
    238c:	fa031ae3          	bnez	t1,2340 <exception_handler+0x58>
    2390:	00004537          	lui	a0,0x4
    2394:	8dc50513          	add	a0,a0,-1828 # 38dc <__modsi3+0x48>
    2398:	511000ef          	jal	30a8 <puts>
    239c:	fd5ff06f          	j	2370 <exception_handler+0x88>
    23a0:	00004537          	lui	a0,0x4
    23a4:	8ec50513          	add	a0,a0,-1812 # 38ec <__modsi3+0x58>
    23a8:	104010ef          	jal	34ac <printf>
    23ac:	fc5ff06f          	j	2370 <exception_handler+0x88>

000023b0 <exception_dump_ctx>:
    23b0:	fe010113          	add	sp,sp,-32
    23b4:	00452683          	lw	a3,4(a0)
    23b8:	00852603          	lw	a2,8(a0)
    23bc:	00052583          	lw	a1,0(a0)
    23c0:	00912a23          	sw	s1,20(sp)
    23c4:	00050493          	mv	s1,a0
    23c8:	00004537          	lui	a0,0x4
    23cc:	96050513          	add	a0,a0,-1696 # 3960 <__modsi3+0xcc>
    23d0:	00812c23          	sw	s0,24(sp)
    23d4:	01212823          	sw	s2,16(sp)
    23d8:	01312623          	sw	s3,12(sp)
    23dc:	00112e23          	sw	ra,28(sp)
    23e0:	00c48493          	add	s1,s1,12
    23e4:	0c8010ef          	jal	34ac <printf>
    23e8:	00000413          	li	s0,0
    23ec:	000049b7          	lui	s3,0x4
    23f0:	02000913          	li	s2,32
    23f4:	0004a603          	lw	a2,0(s1)
    23f8:	00040593          	mv	a1,s0
    23fc:	98c98513          	add	a0,s3,-1652 # 398c <__modsi3+0xf8>
    2400:	00140413          	add	s0,s0,1
    2404:	0a8010ef          	jal	34ac <printf>
    2408:	00448493          	add	s1,s1,4
    240c:	ff2414e3          	bne	s0,s2,23f4 <exception_dump_ctx+0x44>
    2410:	01c12083          	lw	ra,28(sp)
    2414:	01812403          	lw	s0,24(sp)
    2418:	01412483          	lw	s1,20(sp)
    241c:	01012903          	lw	s2,16(sp)
    2420:	00c12983          	lw	s3,12(sp)
    2424:	02010113          	add	sp,sp,32
    2428:	00008067          	ret

0000242c <serial_putchar>:
    242c:	010007b7          	lui	a5,0x1000
    2430:	00f56533          	or	a0,a0,a5
    2434:	7b251073          	csrw	dscratch0,a0
    2438:	00000513          	li	a0,0
    243c:	00008067          	ret

00002440 <serial_haschar>:
    2440:	00000513          	li	a0,0
    2444:	00008067          	ret

00002448 <serial_getchar>:
    2448:	fff00513          	li	a0,-1
    244c:	00008067          	ret

00002450 <serial_init>:
    2450:	00008067          	ret

00002454 <serial_putstr>:
    2454:	00054783          	lbu	a5,0(a0)
    2458:	00078e63          	beqz	a5,2474 <serial_putstr+0x20>
    245c:	01000737          	lui	a4,0x1000
    2460:	00150513          	add	a0,a0,1
    2464:	00e7e7b3          	or	a5,a5,a4
    2468:	7b279073          	csrw	dscratch0,a5
    246c:	00054783          	lbu	a5,0(a0)
    2470:	fe0798e3          	bnez	a5,2460 <serial_putstr+0xc>
    2474:	00008067          	ret

00002478 <timer_init>:
    2478:	00008067          	ret

0000247c <timer_sleep>:
    247c:	ff010113          	add	sp,sp,-16
    2480:	01212023          	sw	s2,0(sp)
    2484:	00112623          	sw	ra,12(sp)
    2488:	00812423          	sw	s0,8(sp)
    248c:	00912223          	sw	s1,4(sp)
    2490:	00050913          	mv	s2,a0
    2494:	c0102573          	rdtime	a0
    2498:	0000c437          	lui	s0,0xc
    249c:	35040593          	add	a1,s0,848 # c350 <_end+0x7648>
    24a0:	358010ef          	jal	37f8 <__udivsi3>
    24a4:	00050493          	mv	s1,a0
    24a8:	35040413          	add	s0,s0,848
    24ac:	c0102573          	rdtime	a0
    24b0:	00040593          	mv	a1,s0
    24b4:	344010ef          	jal	37f8 <__udivsi3>
    24b8:	40950533          	sub	a0,a0,s1
    24bc:	ff2548e3          	blt	a0,s2,24ac <timer_sleep+0x30>
    24c0:	00c12083          	lw	ra,12(sp)
    24c4:	00812403          	lw	s0,8(sp)
    24c8:	00412483          	lw	s1,4(sp)
    24cc:	00012903          	lw	s2,0(sp)
    24d0:	01010113          	add	sp,sp,16
    24d4:	00008067          	ret

000024d8 <timer_now>:
    24d8:	ff010113          	add	sp,sp,-16
    24dc:	00112623          	sw	ra,12(sp)
    24e0:	c0102573          	rdtime	a0
    24e4:	0000c5b7          	lui	a1,0xc
    24e8:	35058593          	add	a1,a1,848 # c350 <_end+0x7648>
    24ec:	30c010ef          	jal	37f8 <__udivsi3>
    24f0:	00c12083          	lw	ra,12(sp)
    24f4:	01010113          	add	sp,sp,16
    24f8:	00008067          	ret

000024fc <assert_handler>:
    24fc:	00068713          	mv	a4,a3
    2500:	00060693          	mv	a3,a2
    2504:	00058613          	mv	a2,a1
    2508:	00050593          	mv	a1,a0
    250c:	00004537          	lui	a0,0x4
    2510:	ff010113          	add	sp,sp,-16
    2514:	99c50513          	add	a0,a0,-1636 # 399c <__modsi3+0x108>
    2518:	00112623          	sw	ra,12(sp)
    251c:	791000ef          	jal	34ac <printf>
    2520:	0ff00793          	li	a5,255
    2524:	7b279073          	csrw	dscratch0,a5
    2528:	00c12083          	lw	ra,12(sp)
    252c:	01010113          	add	sp,sp,16
    2530:	00008067          	ret

00002534 <main>:
    2534:	00004537          	lui	a0,0x4
    2538:	fe010113          	add	sp,sp,-32
    253c:	9ac50513          	add	a0,a0,-1620 # 39ac <__modsi3+0x118>
    2540:	00112e23          	sw	ra,28(sp)
    2544:	00812c23          	sw	s0,24(sp)
    2548:	00912a23          	sw	s1,20(sp)
    254c:	01212823          	sw	s2,16(sp)
    2550:	01312623          	sw	s3,12(sp)
    2554:	355000ef          	jal	30a8 <puts>
    2558:	00004537          	lui	a0,0x4
    255c:	9b450513          	add	a0,a0,-1612 # 39b4 <__modsi3+0x120>
    2560:	349000ef          	jal	30a8 <puts>
    2564:	00004437          	lui	s0,0x4
    2568:	ce042703          	lw	a4,-800(s0) # 3ce0 <var>
    256c:	000017b7          	lui	a5,0x1
    2570:	23478793          	add	a5,a5,564 # 1234 <boot_vector-0xdcc>
    2574:	02f70263          	beq	a4,a5,2598 <main+0x64>
    2578:	00004637          	lui	a2,0x4
    257c:	000045b7          	lui	a1,0x4
    2580:	00004537          	lui	a0,0x4
    2584:	02000693          	li	a3,32
    2588:	9c860613          	add	a2,a2,-1592 # 39c8 <__modsi3+0x134>
    258c:	9d058593          	add	a1,a1,-1584 # 39d0 <__modsi3+0x13c>
    2590:	95850513          	add	a0,a0,-1704 # 3958 <__modsi3+0xc4>
    2594:	f69ff0ef          	jal	24fc <assert_handler>
    2598:	000044b7          	lui	s1,0x4
    259c:	cfc4a783          	lw	a5,-772(s1) # 3cfc <uvar>
    25a0:	04079ee3          	bnez	a5,2dfc <main+0x8c8>
    25a4:	00004537          	lui	a0,0x4
    25a8:	9ec50513          	add	a0,a0,-1556 # 39ec <__modsi3+0x158>
    25ac:	2fd000ef          	jal	30a8 <puts>
    25b0:	ce042683          	lw	a3,-800(s0)
    25b4:	000037b7          	lui	a5,0x3
    25b8:	69c78793          	add	a5,a5,1692 # 369c <snprintf+0x50>
    25bc:	00169713          	sll	a4,a3,0x1
    25c0:	00d70733          	add	a4,a4,a3
    25c4:	cee42023          	sw	a4,-800(s0)
    25c8:	ce042703          	lw	a4,-800(s0)
    25cc:	02f70263          	beq	a4,a5,25f0 <main+0xbc>
    25d0:	00004637          	lui	a2,0x4
    25d4:	000045b7          	lui	a1,0x4
    25d8:	00004537          	lui	a0,0x4
    25dc:	02500693          	li	a3,37
    25e0:	9c860613          	add	a2,a2,-1592 # 39c8 <__modsi3+0x134>
    25e4:	9f858593          	add	a1,a1,-1544 # 39f8 <__modsi3+0x164>
    25e8:	95850513          	add	a0,a0,-1704 # 3958 <__modsi3+0xc4>
    25ec:	f11ff0ef          	jal	24fc <assert_handler>
    25f0:	fff00793          	li	a5,-1
    25f4:	cef42023          	sw	a5,-800(s0)
    25f8:	ce042703          	lw	a4,-800(s0)
    25fc:	ffd00693          	li	a3,-3
    2600:	00171793          	sll	a5,a4,0x1
    2604:	00e787b3          	add	a5,a5,a4
    2608:	cef42023          	sw	a5,-800(s0)
    260c:	ce042783          	lw	a5,-800(s0)
    2610:	02d78263          	beq	a5,a3,2634 <main+0x100>
    2614:	00004637          	lui	a2,0x4
    2618:	000045b7          	lui	a1,0x4
    261c:	00004537          	lui	a0,0x4
    2620:	02800693          	li	a3,40
    2624:	9c860613          	add	a2,a2,-1592 # 39c8 <__modsi3+0x134>
    2628:	a0858593          	add	a1,a1,-1528 # 3a08 <__modsi3+0x174>
    262c:	95850513          	add	a0,a0,-1704 # 3958 <__modsi3+0xc4>
    2630:	ecdff0ef          	jal	24fc <assert_handler>
    2634:	ffb00793          	li	a5,-5
    2638:	cef42023          	sw	a5,-800(s0)
    263c:	ce042703          	lw	a4,-800(s0)
    2640:	fbf00693          	li	a3,-65
    2644:	00171793          	sll	a5,a4,0x1
    2648:	00e787b3          	add	a5,a5,a4
    264c:	00279793          	sll	a5,a5,0x2
    2650:	00e787b3          	add	a5,a5,a4
    2654:	cef42023          	sw	a5,-800(s0)
    2658:	ce042783          	lw	a5,-800(s0)
    265c:	02d78263          	beq	a5,a3,2680 <main+0x14c>
    2660:	00004637          	lui	a2,0x4
    2664:	000045b7          	lui	a1,0x4
    2668:	00004537          	lui	a0,0x4
    266c:	02b00693          	li	a3,43
    2670:	9c860613          	add	a2,a2,-1592 # 39c8 <__modsi3+0x134>
    2674:	a1458593          	add	a1,a1,-1516 # 3a14 <__modsi3+0x180>
    2678:	95850513          	add	a0,a0,-1704 # 3958 <__modsi3+0xc4>
    267c:	e81ff0ef          	jal	24fc <assert_handler>
    2680:	ffb00793          	li	a5,-5
    2684:	cef42023          	sw	a5,-800(s0)
    2688:	ce042703          	lw	a4,-800(s0)
    268c:	04100693          	li	a3,65
    2690:	00371793          	sll	a5,a4,0x3
    2694:	40f707b3          	sub	a5,a4,a5
    2698:	00179793          	sll	a5,a5,0x1
    269c:	00e787b3          	add	a5,a5,a4
    26a0:	cef42023          	sw	a5,-800(s0)
    26a4:	ce042783          	lw	a5,-800(s0)
    26a8:	02d78263          	beq	a5,a3,26cc <main+0x198>
    26ac:	00004637          	lui	a2,0x4
    26b0:	000045b7          	lui	a1,0x4
    26b4:	00004537          	lui	a0,0x4
    26b8:	02e00693          	li	a3,46
    26bc:	9c860613          	add	a2,a2,-1592 # 39c8 <__modsi3+0x134>
    26c0:	a2058593          	add	a1,a1,-1504 # 3a20 <__modsi3+0x18c>
    26c4:	95850513          	add	a0,a0,-1704 # 3958 <__modsi3+0xc4>
    26c8:	e35ff0ef          	jal	24fc <assert_handler>
    26cc:	f8a957b7          	lui	a5,0xf8a95
    26d0:	92978793          	add	a5,a5,-1751 # f8a94929 <_end+0xf8a8fc21>
    26d4:	cef42023          	sw	a5,-800(s0)
    26d8:	ce042503          	lw	a0,-800(s0)
    26dc:	009385b7          	lui	a1,0x938
    26e0:	83358593          	add	a1,a1,-1997 # 937833 <_end+0x932b2b>
    26e4:	094010ef          	jal	3778 <__mulsi3>
    26e8:	cea42023          	sw	a0,-800(s0)
    26ec:	ce042703          	lw	a4,-800(s0)
    26f0:	e68fd7b7          	lui	a5,0xe68fd
    26f4:	b2b78793          	add	a5,a5,-1237 # e68fcb2b <_end+0xe68f7e23>
    26f8:	02f70263          	beq	a4,a5,271c <main+0x1e8>
    26fc:	00004637          	lui	a2,0x4
    2700:	000045b7          	lui	a1,0x4
    2704:	00004537          	lui	a0,0x4
    2708:	03100693          	li	a3,49
    270c:	9c860613          	add	a2,a2,-1592 # 39c8 <__modsi3+0x134>
    2710:	a3058593          	add	a1,a1,-1488 # 3a30 <__modsi3+0x19c>
    2714:	95850513          	add	a0,a0,-1704 # 3958 <__modsi3+0xc4>
    2718:	de5ff0ef          	jal	24fc <assert_handler>
    271c:	00004537          	lui	a0,0x4
    2720:	a4c50513          	add	a0,a0,-1460 # 3a4c <__modsi3+0x1b8>
    2724:	185000ef          	jal	30a8 <puts>
    2728:	000037b7          	lui	a5,0x3
    272c:	69c78793          	add	a5,a5,1692 # 369c <snprintf+0x50>
    2730:	cef42023          	sw	a5,-800(s0)
    2734:	ce042503          	lw	a0,-800(s0)
    2738:	00500593          	li	a1,5
    273c:	0c8010ef          	jal	3804 <__divsi3>
    2740:	cea42023          	sw	a0,-800(s0)
    2744:	ce042703          	lw	a4,-800(s0)
    2748:	000017b7          	lui	a5,0x1
    274c:	aec78793          	add	a5,a5,-1300 # aec <boot_vector-0x1514>
    2750:	02f70263          	beq	a4,a5,2774 <main+0x240>
    2754:	00004637          	lui	a2,0x4
    2758:	000045b7          	lui	a1,0x4
    275c:	00004537          	lui	a0,0x4
    2760:	03600693          	li	a3,54
    2764:	9c860613          	add	a2,a2,-1592 # 39c8 <__modsi3+0x134>
    2768:	a5858593          	add	a1,a1,-1448 # 3a58 <__modsi3+0x1c4>
    276c:	95850513          	add	a0,a0,-1704 # 3958 <__modsi3+0xc4>
    2770:	d8dff0ef          	jal	24fc <assert_handler>
    2774:	ce042503          	lw	a0,-800(s0)
    2778:	06400593          	li	a1,100
    277c:	118010ef          	jal	3894 <__modsi3>
    2780:	cea42023          	sw	a0,-800(s0)
    2784:	ce042703          	lw	a4,-800(s0)
    2788:	06000793          	li	a5,96
    278c:	02f70263          	beq	a4,a5,27b0 <main+0x27c>
    2790:	00004637          	lui	a2,0x4
    2794:	000045b7          	lui	a1,0x4
    2798:	00004537          	lui	a0,0x4
    279c:	03800693          	li	a3,56
    27a0:	9c860613          	add	a2,a2,-1592 # 39c8 <__modsi3+0x134>
    27a4:	a6458593          	add	a1,a1,-1436 # 3a64 <__modsi3+0x1d0>
    27a8:	95850513          	add	a0,a0,-1704 # 3958 <__modsi3+0xc4>
    27ac:	d51ff0ef          	jal	24fc <assert_handler>
    27b0:	b0700793          	li	a5,-1273
    27b4:	cef42023          	sw	a5,-800(s0)
    27b8:	ce042503          	lw	a0,-800(s0)
    27bc:	01300593          	li	a1,19
    27c0:	044010ef          	jal	3804 <__divsi3>
    27c4:	cea42023          	sw	a0,-800(s0)
    27c8:	ce042703          	lw	a4,-800(s0)
    27cc:	fbd00793          	li	a5,-67
    27d0:	02f70263          	beq	a4,a5,27f4 <main+0x2c0>
    27d4:	00004637          	lui	a2,0x4
    27d8:	000045b7          	lui	a1,0x4
    27dc:	00004537          	lui	a0,0x4
    27e0:	03b00693          	li	a3,59
    27e4:	9c860613          	add	a2,a2,-1592 # 39c8 <__modsi3+0x134>
    27e8:	a7058593          	add	a1,a1,-1424 # 3a70 <__modsi3+0x1dc>
    27ec:	95850513          	add	a0,a0,-1704 # 3958 <__modsi3+0xc4>
    27f0:	d0dff0ef          	jal	24fc <assert_handler>
    27f4:	00004537          	lui	a0,0x4
    27f8:	a7c50513          	add	a0,a0,-1412 # 3a7c <__modsi3+0x1e8>
    27fc:	0ad000ef          	jal	30a8 <puts>
    2800:	00100793          	li	a5,1
    2804:	cef42023          	sw	a5,-800(s0)
    2808:	ce042783          	lw	a5,-800(s0)
    280c:	80000737          	lui	a4,0x80000
    2810:	01f79793          	sll	a5,a5,0x1f
    2814:	cef42023          	sw	a5,-800(s0)
    2818:	ce042783          	lw	a5,-800(s0)
    281c:	02e78263          	beq	a5,a4,2840 <main+0x30c>
    2820:	00004637          	lui	a2,0x4
    2824:	000045b7          	lui	a1,0x4
    2828:	00004537          	lui	a0,0x4
    282c:	04000693          	li	a3,64
    2830:	9c860613          	add	a2,a2,-1592 # 39c8 <__modsi3+0x134>
    2834:	a8c58593          	add	a1,a1,-1396 # 3a8c <__modsi3+0x1f8>
    2838:	95850513          	add	a0,a0,-1704 # 3958 <__modsi3+0xc4>
    283c:	cc1ff0ef          	jal	24fc <assert_handler>
    2840:	00004537          	lui	a0,0x4
    2844:	aa050513          	add	a0,a0,-1376 # 3aa0 <__modsi3+0x20c>
    2848:	061000ef          	jal	30a8 <puts>
    284c:	800007b7          	lui	a5,0x80000
    2850:	cef4ae23          	sw	a5,-772(s1)
    2854:	cfc4a783          	lw	a5,-772(s1)
    2858:	40000737          	lui	a4,0x40000
    285c:	0017d793          	srl	a5,a5,0x1
    2860:	cef4ae23          	sw	a5,-772(s1)
    2864:	cfc4a783          	lw	a5,-772(s1)
    2868:	00e78a63          	beq	a5,a4,287c <main+0x348>
    286c:	cfc4a583          	lw	a1,-772(s1)
    2870:	00004537          	lui	a0,0x4
    2874:	ab050513          	add	a0,a0,-1360 # 3ab0 <__modsi3+0x21c>
    2878:	435000ef          	jal	34ac <printf>
    287c:	cfc4a703          	lw	a4,-772(s1)
    2880:	400007b7          	lui	a5,0x40000
    2884:	02f70263          	beq	a4,a5,28a8 <main+0x374>
    2888:	00004637          	lui	a2,0x4
    288c:	000045b7          	lui	a1,0x4
    2890:	00004537          	lui	a0,0x4
    2894:	04700693          	li	a3,71
    2898:	9c860613          	add	a2,a2,-1592 # 39c8 <__modsi3+0x134>
    289c:	ab458593          	add	a1,a1,-1356 # 3ab4 <__modsi3+0x220>
    28a0:	95850513          	add	a0,a0,-1704 # 3958 <__modsi3+0xc4>
    28a4:	c59ff0ef          	jal	24fc <assert_handler>
    28a8:	cfc4a783          	lw	a5,-772(s1)
    28ac:	00100713          	li	a4,1
    28b0:	01e7d793          	srl	a5,a5,0x1e
    28b4:	cef4ae23          	sw	a5,-772(s1)
    28b8:	cfc4a783          	lw	a5,-772(s1)
    28bc:	02e78263          	beq	a5,a4,28e0 <main+0x3ac>
    28c0:	00004637          	lui	a2,0x4
    28c4:	000045b7          	lui	a1,0x4
    28c8:	00004537          	lui	a0,0x4
    28cc:	04900693          	li	a3,73
    28d0:	9c860613          	add	a2,a2,-1592 # 39c8 <__modsi3+0x134>
    28d4:	ac858593          	add	a1,a1,-1336 # 3ac8 <__modsi3+0x234>
    28d8:	95850513          	add	a0,a0,-1704 # 3958 <__modsi3+0xc4>
    28dc:	c21ff0ef          	jal	24fc <assert_handler>
    28e0:	00004537          	lui	a0,0x4
    28e4:	adc50513          	add	a0,a0,-1316 # 3adc <__modsi3+0x248>
    28e8:	7c0000ef          	jal	30a8 <puts>
    28ec:	800007b7          	lui	a5,0x80000
    28f0:	cef42023          	sw	a5,-800(s0)
    28f4:	ce042783          	lw	a5,-800(s0)
    28f8:	c0000737          	lui	a4,0xc0000
    28fc:	4017d793          	sra	a5,a5,0x1
    2900:	cef42023          	sw	a5,-800(s0)
    2904:	ce042783          	lw	a5,-800(s0)
    2908:	02e78263          	beq	a5,a4,292c <main+0x3f8>
    290c:	00004637          	lui	a2,0x4
    2910:	000045b7          	lui	a1,0x4
    2914:	00004537          	lui	a0,0x4
    2918:	04e00693          	li	a3,78
    291c:	9c860613          	add	a2,a2,-1592 # 39c8 <__modsi3+0x134>
    2920:	af858593          	add	a1,a1,-1288 # 3af8 <__modsi3+0x264>
    2924:	95850513          	add	a0,a0,-1704 # 3958 <__modsi3+0xc4>
    2928:	bd5ff0ef          	jal	24fc <assert_handler>
    292c:	00004537          	lui	a0,0x4
    2930:	b0c50513          	add	a0,a0,-1268 # 3b0c <__modsi3+0x278>
    2934:	774000ef          	jal	30a8 <puts>
    2938:	fff00793          	li	a5,-1
    293c:	cef42023          	sw	a5,-800(s0)
    2940:	ce042783          	lw	a5,-800(s0)
    2944:	02f05263          	blez	a5,2968 <main+0x434>
    2948:	00004637          	lui	a2,0x4
    294c:	000045b7          	lui	a1,0x4
    2950:	00004537          	lui	a0,0x4
    2954:	05200693          	li	a3,82
    2958:	9c860613          	add	a2,a2,-1592 # 39c8 <__modsi3+0x134>
    295c:	b2458593          	add	a1,a1,-1244 # 3b24 <__modsi3+0x290>
    2960:	95850513          	add	a0,a0,-1704 # 3958 <__modsi3+0xc4>
    2964:	b99ff0ef          	jal	24fc <assert_handler>
    2968:	ce042703          	lw	a4,-800(s0)
    296c:	00900793          	li	a5,9
    2970:	46e7c463          	blt	a5,a4,2dd8 <main+0x8a4>
    2974:	ce042703          	lw	a4,-800(s0)
    2978:	00a00793          	li	a5,10
    297c:	42e7cc63          	blt	a5,a4,2db4 <main+0x880>
    2980:	ce042703          	lw	a4,-800(s0)
    2984:	ffe00793          	li	a5,-2
    2988:	40f74463          	blt	a4,a5,2d90 <main+0x85c>
    298c:	ce042703          	lw	a4,-800(s0)
    2990:	ffd00793          	li	a5,-3
    2994:	3cf74c63          	blt	a4,a5,2d6c <main+0x838>
    2998:	00004537          	lui	a0,0x4
    299c:	b5450513          	add	a0,a0,-1196 # 3b54 <__modsi3+0x2c0>
    29a0:	708000ef          	jal	30a8 <puts>
    29a4:	123457b7          	lui	a5,0x12345
    29a8:	67878793          	add	a5,a5,1656 # 12345678 <_end+0x12340970>
    29ac:	cef4ae23          	sw	a5,-772(s1)
    29b0:	cfc4a703          	lw	a4,-772(s1)
    29b4:	02f70263          	beq	a4,a5,29d8 <main+0x4a4>
    29b8:	00004637          	lui	a2,0x4
    29bc:	000045b7          	lui	a1,0x4
    29c0:	00004537          	lui	a0,0x4
    29c4:	05c00693          	li	a3,92
    29c8:	9c860613          	add	a2,a2,-1592 # 39c8 <__modsi3+0x134>
    29cc:	b6458593          	add	a1,a1,-1180 # 3b64 <__modsi3+0x2d0>
    29d0:	95850513          	add	a0,a0,-1704 # 3958 <__modsi3+0xc4>
    29d4:	b29ff0ef          	jal	24fc <assert_handler>
    29d8:	cfc4a703          	lw	a4,-772(s1)
    29dc:	000057b7          	lui	a5,0x5
    29e0:	67878793          	add	a5,a5,1656 # 5678 <_end+0x970>
    29e4:	01071713          	sll	a4,a4,0x10
    29e8:	01075713          	srl	a4,a4,0x10
    29ec:	02f70263          	beq	a4,a5,2a10 <main+0x4dc>
    29f0:	00004637          	lui	a2,0x4
    29f4:	000045b7          	lui	a1,0x4
    29f8:	00004537          	lui	a0,0x4
    29fc:	05e00693          	li	a3,94
    2a00:	9c860613          	add	a2,a2,-1592 # 39c8 <__modsi3+0x134>
    2a04:	b7858593          	add	a1,a1,-1160 # 3b78 <__modsi3+0x2e4>
    2a08:	95850513          	add	a0,a0,-1704 # 3958 <__modsi3+0xc4>
    2a0c:	af1ff0ef          	jal	24fc <assert_handler>
    2a10:	cfc4d703          	lhu	a4,-772(s1)
    2a14:	000057b7          	lui	a5,0x5
    2a18:	67878793          	add	a5,a5,1656 # 5678 <_end+0x970>
    2a1c:	02f70263          	beq	a4,a5,2a40 <main+0x50c>
    2a20:	00004637          	lui	a2,0x4
    2a24:	000045b7          	lui	a1,0x4
    2a28:	00004537          	lui	a0,0x4
    2a2c:	06000693          	li	a3,96
    2a30:	9c860613          	add	a2,a2,-1592 # 39c8 <__modsi3+0x134>
    2a34:	b8858593          	add	a1,a1,-1144 # 3b88 <__modsi3+0x2f4>
    2a38:	95850513          	add	a0,a0,-1704 # 3958 <__modsi3+0xc4>
    2a3c:	ac1ff0ef          	jal	24fc <assert_handler>
    2a40:	cfc48413          	add	s0,s1,-772
    2a44:	00245703          	lhu	a4,2(s0)
    2a48:	000017b7          	lui	a5,0x1
    2a4c:	23478793          	add	a5,a5,564 # 1234 <boot_vector-0xdcc>
    2a50:	02f70263          	beq	a4,a5,2a74 <main+0x540>
    2a54:	00004637          	lui	a2,0x4
    2a58:	000045b7          	lui	a1,0x4
    2a5c:	00004537          	lui	a0,0x4
    2a60:	06100693          	li	a3,97
    2a64:	9c860613          	add	a2,a2,-1592 # 39c8 <__modsi3+0x134>
    2a68:	b9c58593          	add	a1,a1,-1124 # 3b9c <__modsi3+0x308>
    2a6c:	95850513          	add	a0,a0,-1704 # 3958 <__modsi3+0xc4>
    2a70:	a8dff0ef          	jal	24fc <assert_handler>
    2a74:	ffffd7b7          	lui	a5,0xffffd
    2a78:	afe78793          	add	a5,a5,-1282 # ffffcafe <_end+0xffff7df6>
    2a7c:	00245703          	lhu	a4,2(s0)
    2a80:	cef49e23          	sh	a5,-772(s1)
    2a84:	000017b7          	lui	a5,0x1
    2a88:	23478793          	add	a5,a5,564 # 1234 <boot_vector-0xdcc>
    2a8c:	02f70263          	beq	a4,a5,2ab0 <main+0x57c>
    2a90:	00004637          	lui	a2,0x4
    2a94:	000045b7          	lui	a1,0x4
    2a98:	00004537          	lui	a0,0x4
    2a9c:	06500693          	li	a3,101
    2aa0:	9c860613          	add	a2,a2,-1592 # 39c8 <__modsi3+0x134>
    2aa4:	b9c58593          	add	a1,a1,-1124 # 3b9c <__modsi3+0x308>
    2aa8:	95850513          	add	a0,a0,-1704 # 3958 <__modsi3+0xc4>
    2aac:	a51ff0ef          	jal	24fc <assert_handler>
    2ab0:	ffffc7b7          	lui	a5,0xffffc
    2ab4:	abe78793          	add	a5,a5,-1346 # ffffbabe <_end+0xffff6db6>
    2ab8:	cfc4d703          	lhu	a4,-772(s1)
    2abc:	00f41123          	sh	a5,2(s0)
    2ac0:	0000d7b7          	lui	a5,0xd
    2ac4:	afe78793          	add	a5,a5,-1282 # cafe <_end+0x7df6>
    2ac8:	24f71c63          	bne	a4,a5,2d20 <main+0x7ec>
    2acc:	00004537          	lui	a0,0x4
    2ad0:	bd850513          	add	a0,a0,-1064 # 3bd8 <__modsi3+0x344>
    2ad4:	5d4000ef          	jal	30a8 <puts>
    2ad8:	123457b7          	lui	a5,0x12345
    2adc:	67878793          	add	a5,a5,1656 # 12345678 <_end+0x12340970>
    2ae0:	cef4ae23          	sw	a5,-772(s1)
    2ae4:	cfc4a703          	lw	a4,-772(s1)
    2ae8:	02f70263          	beq	a4,a5,2b0c <main+0x5d8>
    2aec:	00004637          	lui	a2,0x4
    2af0:	000045b7          	lui	a1,0x4
    2af4:	00004537          	lui	a0,0x4
    2af8:	06e00693          	li	a3,110
    2afc:	9c860613          	add	a2,a2,-1592 # 39c8 <__modsi3+0x134>
    2b00:	b6458593          	add	a1,a1,-1180 # 3b64 <__modsi3+0x2d0>
    2b04:	95850513          	add	a0,a0,-1704 # 3958 <__modsi3+0xc4>
    2b08:	9f5ff0ef          	jal	24fc <assert_handler>
    2b0c:	cfc4a783          	lw	a5,-772(s1)
    2b10:	07800713          	li	a4,120
    2b14:	0ff7f793          	zext.b	a5,a5
    2b18:	02e78263          	beq	a5,a4,2b3c <main+0x608>
    2b1c:	00004637          	lui	a2,0x4
    2b20:	000045b7          	lui	a1,0x4
    2b24:	00004537          	lui	a0,0x4
    2b28:	07000693          	li	a3,112
    2b2c:	9c860613          	add	a2,a2,-1592 # 39c8 <__modsi3+0x134>
    2b30:	be858593          	add	a1,a1,-1048 # 3be8 <__modsi3+0x354>
    2b34:	95850513          	add	a0,a0,-1704 # 3958 <__modsi3+0xc4>
    2b38:	9c5ff0ef          	jal	24fc <assert_handler>
    2b3c:	cfc4c703          	lbu	a4,-772(s1)
    2b40:	07800793          	li	a5,120
    2b44:	02f70263          	beq	a4,a5,2b68 <main+0x634>
    2b48:	00004637          	lui	a2,0x4
    2b4c:	000045b7          	lui	a1,0x4
    2b50:	00004537          	lui	a0,0x4
    2b54:	07200693          	li	a3,114
    2b58:	9c860613          	add	a2,a2,-1592 # 39c8 <__modsi3+0x134>
    2b5c:	bf458593          	add	a1,a1,-1036 # 3bf4 <__modsi3+0x360>
    2b60:	95850513          	add	a0,a0,-1704 # 3958 <__modsi3+0xc4>
    2b64:	999ff0ef          	jal	24fc <assert_handler>
    2b68:	00144703          	lbu	a4,1(s0)
    2b6c:	05600793          	li	a5,86
    2b70:	02f70263          	beq	a4,a5,2b94 <main+0x660>
    2b74:	00004637          	lui	a2,0x4
    2b78:	000045b7          	lui	a1,0x4
    2b7c:	00004537          	lui	a0,0x4
    2b80:	07300693          	li	a3,115
    2b84:	9c860613          	add	a2,a2,-1592 # 39c8 <__modsi3+0x134>
    2b88:	c0458593          	add	a1,a1,-1020 # 3c04 <__modsi3+0x370>
    2b8c:	95850513          	add	a0,a0,-1704 # 3958 <__modsi3+0xc4>
    2b90:	96dff0ef          	jal	24fc <assert_handler>
    2b94:	00244703          	lbu	a4,2(s0)
    2b98:	03400793          	li	a5,52
    2b9c:	02f70263          	beq	a4,a5,2bc0 <main+0x68c>
    2ba0:	00004637          	lui	a2,0x4
    2ba4:	000045b7          	lui	a1,0x4
    2ba8:	00004537          	lui	a0,0x4
    2bac:	07400693          	li	a3,116
    2bb0:	9c860613          	add	a2,a2,-1592 # 39c8 <__modsi3+0x134>
    2bb4:	c1458593          	add	a1,a1,-1004 # 3c14 <__modsi3+0x380>
    2bb8:	95850513          	add	a0,a0,-1704 # 3958 <__modsi3+0xc4>
    2bbc:	941ff0ef          	jal	24fc <assert_handler>
    2bc0:	00344703          	lbu	a4,3(s0)
    2bc4:	01200793          	li	a5,18
    2bc8:	02f70263          	beq	a4,a5,2bec <main+0x6b8>
    2bcc:	00004637          	lui	a2,0x4
    2bd0:	000045b7          	lui	a1,0x4
    2bd4:	00004537          	lui	a0,0x4
    2bd8:	07500693          	li	a3,117
    2bdc:	9c860613          	add	a2,a2,-1592 # 39c8 <__modsi3+0x134>
    2be0:	c2458593          	add	a1,a1,-988 # 3c24 <__modsi3+0x390>
    2be4:	95850513          	add	a0,a0,-1704 # 3958 <__modsi3+0xc4>
    2be8:	915ff0ef          	jal	24fc <assert_handler>
    2bec:	fab00793          	li	a5,-85
    2bf0:	cef48e23          	sb	a5,-772(s1)
    2bf4:	cfc4a703          	lw	a4,-772(s1)
    2bf8:	123457b7          	lui	a5,0x12345
    2bfc:	6ab78793          	add	a5,a5,1707 # 123456ab <_end+0x123409a3>
    2c00:	02f70263          	beq	a4,a5,2c24 <main+0x6f0>
    2c04:	00004637          	lui	a2,0x4
    2c08:	000045b7          	lui	a1,0x4
    2c0c:	00004537          	lui	a0,0x4
    2c10:	07800693          	li	a3,120
    2c14:	9c860613          	add	a2,a2,-1592 # 39c8 <__modsi3+0x134>
    2c18:	c3458593          	add	a1,a1,-972 # 3c34 <__modsi3+0x3a0>
    2c1c:	95850513          	add	a0,a0,-1704 # 3958 <__modsi3+0xc4>
    2c20:	8ddff0ef          	jal	24fc <assert_handler>
    2c24:	fcd00793          	li	a5,-51
    2c28:	00f400a3          	sb	a5,1(s0)
    2c2c:	cfc4a703          	lw	a4,-772(s1)
    2c30:	1234d7b7          	lui	a5,0x1234d
    2c34:	dab78793          	add	a5,a5,-597 # 1234cdab <_end+0x123480a3>
    2c38:	02f70263          	beq	a4,a5,2c5c <main+0x728>
    2c3c:	00004637          	lui	a2,0x4
    2c40:	000045b7          	lui	a1,0x4
    2c44:	00004537          	lui	a0,0x4
    2c48:	07a00693          	li	a3,122
    2c4c:	9c860613          	add	a2,a2,-1592 # 39c8 <__modsi3+0x134>
    2c50:	c4858593          	add	a1,a1,-952 # 3c48 <__modsi3+0x3b4>
    2c54:	95850513          	add	a0,a0,-1704 # 3958 <__modsi3+0xc4>
    2c58:	8a5ff0ef          	jal	24fc <assert_handler>
    2c5c:	fef00793          	li	a5,-17
    2c60:	00f40123          	sb	a5,2(s0)
    2c64:	cfc4a703          	lw	a4,-772(s1)
    2c68:	12efd7b7          	lui	a5,0x12efd
    2c6c:	dab78793          	add	a5,a5,-597 # 12efcdab <_end+0x12ef80a3>
    2c70:	02f70263          	beq	a4,a5,2c94 <main+0x760>
    2c74:	00004637          	lui	a2,0x4
    2c78:	000045b7          	lui	a1,0x4
    2c7c:	00004537          	lui	a0,0x4
    2c80:	07c00693          	li	a3,124
    2c84:	9c860613          	add	a2,a2,-1592 # 39c8 <__modsi3+0x134>
    2c88:	c5c58593          	add	a1,a1,-932 # 3c5c <__modsi3+0x3c8>
    2c8c:	95850513          	add	a0,a0,-1704 # 3958 <__modsi3+0xc4>
    2c90:	86dff0ef          	jal	24fc <assert_handler>
    2c94:	00100793          	li	a5,1
    2c98:	00f401a3          	sb	a5,3(s0)
    2c9c:	cfc4a703          	lw	a4,-772(s1)
    2ca0:	01efd7b7          	lui	a5,0x1efd
    2ca4:	dab78793          	add	a5,a5,-597 # 1efcdab <_end+0x1ef80a3>
    2ca8:	02f70263          	beq	a4,a5,2ccc <main+0x798>
    2cac:	00004637          	lui	a2,0x4
    2cb0:	000045b7          	lui	a1,0x4
    2cb4:	00004537          	lui	a0,0x4
    2cb8:	07e00693          	li	a3,126
    2cbc:	9c860613          	add	a2,a2,-1592 # 39c8 <__modsi3+0x134>
    2cc0:	c7058593          	add	a1,a1,-912 # 3c70 <__modsi3+0x3dc>
    2cc4:	95850513          	add	a0,a0,-1704 # 3958 <__modsi3+0xc4>
    2cc8:	835ff0ef          	jal	24fc <assert_handler>
    2ccc:	00004537          	lui	a0,0x4
    2cd0:	c8450513          	add	a0,a0,-892 # 3c84 <__modsi3+0x3f0>
    2cd4:	3d4000ef          	jal	30a8 <puts>
    2cd8:	000027b7          	lui	a5,0x2
    2cdc:	00004737          	lui	a4,0x4
    2ce0:	db978793          	add	a5,a5,-583 # 1db9 <boot_vector-0x247>
    2ce4:	cef72c23          	sw	a5,-776(a4) # 3cf8 <longvar>
    2ce8:	cf872603          	lw	a2,-776(a4)
    2cec:	000107b7          	lui	a5,0x10
    2cf0:	ff778693          	add	a3,a5,-9 # fff7 <_end+0xb2ef>
    2cf4:	00c6f663          	bgeu	a3,a2,2d00 <main+0x7cc>
    2cf8:	cf872703          	lw	a4,-776(a4)
    2cfc:	12f76263          	bltu	a4,a5,2e20 <main+0x8ec>
    2d00:	01c12083          	lw	ra,28(sp)
    2d04:	01812403          	lw	s0,24(sp)
    2d08:	01412483          	lw	s1,20(sp)
    2d0c:	01012903          	lw	s2,16(sp)
    2d10:	00c12983          	lw	s3,12(sp)
    2d14:	00000513          	li	a0,0
    2d18:	02010113          	add	sp,sp,32
    2d1c:	00008067          	ret
    2d20:	000049b7          	lui	s3,0x4
    2d24:	00004937          	lui	s2,0x4
    2d28:	000045b7          	lui	a1,0x4
    2d2c:	06900693          	li	a3,105
    2d30:	9c898613          	add	a2,s3,-1592 # 39c8 <__modsi3+0x134>
    2d34:	bb058593          	add	a1,a1,-1104 # 3bb0 <__modsi3+0x31c>
    2d38:	95890513          	add	a0,s2,-1704 # 3958 <__modsi3+0xc4>
    2d3c:	fc0ff0ef          	jal	24fc <assert_handler>
    2d40:	00245703          	lhu	a4,2(s0)
    2d44:	0000c7b7          	lui	a5,0xc
    2d48:	abe78793          	add	a5,a5,-1346 # babe <_end+0x6db6>
    2d4c:	d8f700e3          	beq	a4,a5,2acc <main+0x598>
    2d50:	000045b7          	lui	a1,0x4
    2d54:	06a00693          	li	a3,106
    2d58:	9c898613          	add	a2,s3,-1592
    2d5c:	bc458593          	add	a1,a1,-1084 # 3bc4 <__modsi3+0x330>
    2d60:	95890513          	add	a0,s2,-1704
    2d64:	f98ff0ef          	jal	24fc <assert_handler>
    2d68:	d65ff06f          	j	2acc <main+0x598>
    2d6c:	00004637          	lui	a2,0x4
    2d70:	000045b7          	lui	a1,0x4
    2d74:	00004537          	lui	a0,0x4
    2d78:	05800693          	li	a3,88
    2d7c:	9c860613          	add	a2,a2,-1592 # 39c8 <__modsi3+0x134>
    2d80:	b4858593          	add	a1,a1,-1208 # 3b48 <__modsi3+0x2b4>
    2d84:	95850513          	add	a0,a0,-1704 # 3958 <__modsi3+0xc4>
    2d88:	f74ff0ef          	jal	24fc <assert_handler>
    2d8c:	c0dff06f          	j	2998 <main+0x464>
    2d90:	00004637          	lui	a2,0x4
    2d94:	000045b7          	lui	a1,0x4
    2d98:	00004537          	lui	a0,0x4
    2d9c:	05700693          	li	a3,87
    2da0:	9c860613          	add	a2,a2,-1592 # 39c8 <__modsi3+0x134>
    2da4:	b4058593          	add	a1,a1,-1216 # 3b40 <__modsi3+0x2ac>
    2da8:	95850513          	add	a0,a0,-1704 # 3958 <__modsi3+0xc4>
    2dac:	f50ff0ef          	jal	24fc <assert_handler>
    2db0:	bddff06f          	j	298c <main+0x458>
    2db4:	00004637          	lui	a2,0x4
    2db8:	000045b7          	lui	a1,0x4
    2dbc:	00004537          	lui	a0,0x4
    2dc0:	05500693          	li	a3,85
    2dc4:	9c860613          	add	a2,a2,-1592 # 39c8 <__modsi3+0x134>
    2dc8:	b3458593          	add	a1,a1,-1228 # 3b34 <__modsi3+0x2a0>
    2dcc:	95850513          	add	a0,a0,-1704 # 3958 <__modsi3+0xc4>
    2dd0:	f2cff0ef          	jal	24fc <assert_handler>
    2dd4:	badff06f          	j	2980 <main+0x44c>
    2dd8:	00004637          	lui	a2,0x4
    2ddc:	000045b7          	lui	a1,0x4
    2de0:	00004537          	lui	a0,0x4
    2de4:	05400693          	li	a3,84
    2de8:	9c860613          	add	a2,a2,-1592 # 39c8 <__modsi3+0x134>
    2dec:	b2c58593          	add	a1,a1,-1236 # 3b2c <__modsi3+0x298>
    2df0:	95850513          	add	a0,a0,-1704 # 3958 <__modsi3+0xc4>
    2df4:	f08ff0ef          	jal	24fc <assert_handler>
    2df8:	b7dff06f          	j	2974 <main+0x440>
    2dfc:	00004637          	lui	a2,0x4
    2e00:	000045b7          	lui	a1,0x4
    2e04:	00004537          	lui	a0,0x4
    2e08:	02100693          	li	a3,33
    2e0c:	9c860613          	add	a2,a2,-1592 # 39c8 <__modsi3+0x134>
    2e10:	9e058593          	add	a1,a1,-1568 # 39e0 <__modsi3+0x14c>
    2e14:	95850513          	add	a0,a0,-1704 # 3958 <__modsi3+0xc4>
    2e18:	ee4ff0ef          	jal	24fc <assert_handler>
    2e1c:	f88ff06f          	j	25a4 <main+0x70>
    2e20:	00004537          	lui	a0,0x4
    2e24:	c9450513          	add	a0,a0,-876 # 3c94 <__modsi3+0x400>
    2e28:	280000ef          	jal	30a8 <puts>
    2e2c:	00004637          	lui	a2,0x4
    2e30:	000045b7          	lui	a1,0x4
    2e34:	00004537          	lui	a0,0x4
    2e38:	08500693          	li	a3,133
    2e3c:	9c860613          	add	a2,a2,-1592 # 39c8 <__modsi3+0x134>
    2e40:	a9c58593          	add	a1,a1,-1380 # 3a9c <__modsi3+0x208>
    2e44:	95850513          	add	a0,a0,-1704 # 3958 <__modsi3+0xc4>
    2e48:	eb4ff0ef          	jal	24fc <assert_handler>
    2e4c:	eb5ff06f          	j	2d00 <main+0x7cc>

00002e50 <vbuf_putchar>:
    2e50:	00052303          	lw	t1,0(a0)
    2e54:	00030663          	beqz	t1,2e60 <vbuf_putchar+0x10>
    2e58:	00058513          	mv	a0,a1
    2e5c:	00030067          	jr	t1
    2e60:	00452703          	lw	a4,4(a0)
    2e64:	02070063          	beqz	a4,2e84 <vbuf_putchar+0x34>
    2e68:	00852683          	lw	a3,8(a0)
    2e6c:	00c52603          	lw	a2,12(a0)
    2e70:	00c6da63          	bge	a3,a2,2e84 <vbuf_putchar+0x34>
    2e74:	00168613          	add	a2,a3,1
    2e78:	00c52423          	sw	a2,8(a0)
    2e7c:	00d70733          	add	a4,a4,a3
    2e80:	00b70023          	sb	a1,0(a4)
    2e84:	00008067          	ret

00002e88 <padding>:
    2e88:	01062783          	lw	a5,16(a2)
    2e8c:	04078263          	beqz	a5,2ed0 <padding+0x48>
    2e90:	04058063          	beqz	a1,2ed0 <padding+0x48>
    2e94:	ff010113          	add	sp,sp,-16
    2e98:	00912223          	sw	s1,4(sp)
    2e9c:	00462783          	lw	a5,4(a2)
    2ea0:	00062483          	lw	s1,0(a2)
    2ea4:	00812423          	sw	s0,8(sp)
    2ea8:	01212023          	sw	s2,0(sp)
    2eac:	00112623          	sw	ra,12(sp)
    2eb0:	00060413          	mv	s0,a2
    2eb4:	00050913          	mv	s2,a0
    2eb8:	02f4c863          	blt	s1,a5,2ee8 <padding+0x60>
    2ebc:	00c12083          	lw	ra,12(sp)
    2ec0:	00812403          	lw	s0,8(sp)
    2ec4:	00412483          	lw	s1,4(sp)
    2ec8:	00012903          	lw	s2,0(sp)
    2ecc:	01010113          	add	sp,sp,16
    2ed0:	00008067          	ret
    2ed4:	00c44583          	lbu	a1,12(s0)
    2ed8:	00090513          	mv	a0,s2
    2edc:	00148493          	add	s1,s1,1
    2ee0:	00000317          	auipc	t1,0x0
    2ee4:	f70300e7          	jalr	-144(t1) # 2e50 <vbuf_putchar>
    2ee8:	00442783          	lw	a5,4(s0)
    2eec:	fef4c4e3          	blt	s1,a5,2ed4 <padding+0x4c>
    2ef0:	fcdff06f          	j	2ebc <padding+0x34>

00002ef4 <outnum>:
    2ef4:	f8010113          	add	sp,sp,-128
    2ef8:	06912a23          	sw	s1,116(sp)
    2efc:	00058493          	mv	s1,a1
    2f00:	000045b7          	lui	a1,0x4
    2f04:	07412423          	sw	s4,104(sp)
    2f08:	07612023          	sw	s6,96(sp)
    2f0c:	cac58593          	add	a1,a1,-852 # 3cac <__modsi3+0x418>
    2f10:	00050b13          	mv	s6,a0
    2f14:	00060a13          	mv	s4,a2
    2f18:	00810513          	add	a0,sp,8
    2f1c:	01100613          	li	a2,17
    2f20:	06112e23          	sw	ra,124(sp)
    2f24:	07212823          	sw	s2,112(sp)
    2f28:	06812c23          	sw	s0,120(sp)
    2f2c:	00068913          	mv	s2,a3
    2f30:	07312623          	sw	s3,108(sp)
    2f34:	07512223          	sw	s5,100(sp)
    2f38:	05712e23          	sw	s7,92(sp)
    2f3c:	00000317          	auipc	t1,0x0
    2f40:	7ec300e7          	jalr	2028(t1) # 3728 <memcpy>
    2f44:	000045b7          	lui	a1,0x4
    2f48:	01100613          	li	a2,17
    2f4c:	cc058593          	add	a1,a1,-832 # 3cc0 <__modsi3+0x42c>
    2f50:	01c10513          	add	a0,sp,28
    2f54:	00000317          	auipc	t1,0x0
    2f58:	7d4300e7          	jalr	2004(t1) # 3728 <memcpy>
    2f5c:	00a00793          	li	a5,10
    2f60:	0efa1e63          	bne	s4,a5,305c <outnum+0x168>
    2f64:	0e04dc63          	bgez	s1,305c <outnum+0x168>
    2f68:	409004b3          	neg	s1,s1
    2f6c:	00100b93          	li	s7,1
    2f70:	01892783          	lw	a5,24(s2)
    2f74:	00810993          	add	s3,sp,8
    2f78:	00079463          	bnez	a5,2f80 <outnum+0x8c>
    2f7c:	01c10993          	add	s3,sp,28
    2f80:	03010a93          	add	s5,sp,48
    2f84:	00a00793          	li	a5,10
    2f88:	000a8413          	mv	s0,s5
    2f8c:	0cfa1c63          	bne	s4,a5,3064 <outnum+0x170>
    2f90:	000a0593          	mv	a1,s4
    2f94:	00048513          	mv	a0,s1
    2f98:	00001317          	auipc	t1,0x1
    2f9c:	8f0300e7          	jalr	-1808(t1) # 3888 <__umodsi3>
    2fa0:	00a98533          	add	a0,s3,a0
    2fa4:	00054783          	lbu	a5,0(a0)
    2fa8:	00140413          	add	s0,s0,1
    2fac:	00048513          	mv	a0,s1
    2fb0:	fef40fa3          	sb	a5,-1(s0)
    2fb4:	000a0593          	mv	a1,s4
    2fb8:	00001317          	auipc	t1,0x1
    2fbc:	840300e7          	jalr	-1984(t1) # 37f8 <__udivsi3>
    2fc0:	00050493          	mv	s1,a0
    2fc4:	fc0516e3          	bnez	a0,2f90 <outnum+0x9c>
    2fc8:	000b8863          	beqz	s7,2fd8 <outnum+0xe4>
    2fcc:	02d00793          	li	a5,45
    2fd0:	00f40023          	sb	a5,0(s0)
    2fd4:	00140413          	add	s0,s0,1
    2fd8:	00040023          	sb	zero,0(s0)
    2fdc:	000a8513          	mv	a0,s5
    2fe0:	00000317          	auipc	t1,0x0
    2fe4:	6f8300e7          	jalr	1784(t1) # 36d8 <strlen>
    2fe8:	01492583          	lw	a1,20(s2)
    2fec:	00a92023          	sw	a0,0(s2)
    2ff0:	00090613          	mv	a2,s2
    2ff4:	0015b593          	seqz	a1,a1
    2ff8:	000b0513          	mv	a0,s6
    2ffc:	fff40493          	add	s1,s0,-1
    3000:	00000317          	auipc	t1,0x0
    3004:	e88300e7          	jalr	-376(t1) # 2e88 <padding>
    3008:	fff4c793          	not	a5,s1
    300c:	00f407b3          	add	a5,s0,a5
    3010:	0154e663          	bltu	s1,s5,301c <outnum+0x128>
    3014:	01c92703          	lw	a4,28(s2)
    3018:	06e7c663          	blt	a5,a4,3084 <outnum+0x190>
    301c:	01492583          	lw	a1,20(s2)
    3020:	00090613          	mv	a2,s2
    3024:	000b0513          	mv	a0,s6
    3028:	00000317          	auipc	t1,0x0
    302c:	e60300e7          	jalr	-416(t1) # 2e88 <padding>
    3030:	07c12083          	lw	ra,124(sp)
    3034:	07812403          	lw	s0,120(sp)
    3038:	07412483          	lw	s1,116(sp)
    303c:	07012903          	lw	s2,112(sp)
    3040:	06c12983          	lw	s3,108(sp)
    3044:	06812a03          	lw	s4,104(sp)
    3048:	06412a83          	lw	s5,100(sp)
    304c:	06012b03          	lw	s6,96(sp)
    3050:	05c12b83          	lw	s7,92(sp)
    3054:	08010113          	add	sp,sp,128
    3058:	00008067          	ret
    305c:	00000b93          	li	s7,0
    3060:	f11ff06f          	j	2f70 <outnum+0x7c>
    3064:	00f4f793          	and	a5,s1,15
    3068:	00f987b3          	add	a5,s3,a5
    306c:	0007c783          	lbu	a5,0(a5)
    3070:	00140413          	add	s0,s0,1
    3074:	0044d493          	srl	s1,s1,0x4
    3078:	fef40fa3          	sb	a5,-1(s0)
    307c:	fe0494e3          	bnez	s1,3064 <outnum+0x170>
    3080:	f49ff06f          	j	2fc8 <outnum+0xd4>
    3084:	fff48493          	add	s1,s1,-1
    3088:	0014c583          	lbu	a1,1(s1)
    308c:	000b0513          	mv	a0,s6
    3090:	00000317          	auipc	t1,0x0
    3094:	dc0300e7          	jalr	-576(t1) # 2e50 <vbuf_putchar>
    3098:	f71ff06f          	j	3008 <outnum+0x114>

0000309c <printf_register>:
    309c:	000047b7          	lui	a5,0x4
    30a0:	cea7aa23          	sw	a0,-780(a5) # 3cf4 <_stdout>
    30a4:	00008067          	ret

000030a8 <puts>:
    30a8:	ff010113          	add	sp,sp,-16
    30ac:	00812423          	sw	s0,8(sp)
    30b0:	00004437          	lui	s0,0x4
    30b4:	cf442783          	lw	a5,-780(s0) # 3cf4 <_stdout>
    30b8:	00912223          	sw	s1,4(sp)
    30bc:	00112623          	sw	ra,12(sp)
    30c0:	00050493          	mv	s1,a0
    30c4:	02079463          	bnez	a5,30ec <puts+0x44>
    30c8:	00c12083          	lw	ra,12(sp)
    30cc:	fff00513          	li	a0,-1
    30d0:	00812403          	lw	s0,8(sp)
    30d4:	00412483          	lw	s1,4(sp)
    30d8:	01010113          	add	sp,sp,16
    30dc:	00008067          	ret
    30e0:	cf442783          	lw	a5,-780(s0)
    30e4:	00148493          	add	s1,s1,1
    30e8:	000780e7          	jalr	a5
    30ec:	0004c503          	lbu	a0,0(s1)
    30f0:	fe0518e3          	bnez	a0,30e0 <puts+0x38>
    30f4:	cf442303          	lw	t1,-780(s0)
    30f8:	00c12083          	lw	ra,12(sp)
    30fc:	00812403          	lw	s0,8(sp)
    3100:	00412483          	lw	s1,4(sp)
    3104:	00a00513          	li	a0,10
    3108:	01010113          	add	sp,sp,16
    310c:	00030067          	jr	t1

00003110 <putchar>:
    3110:	000047b7          	lui	a5,0x4
    3114:	cf47a783          	lw	a5,-780(a5) # 3cf4 <_stdout>
    3118:	ff010113          	add	sp,sp,-16
    311c:	00812423          	sw	s0,8(sp)
    3120:	00112623          	sw	ra,12(sp)
    3124:	fff00413          	li	s0,-1
    3128:	00078863          	beqz	a5,3138 <putchar+0x28>
    312c:	00050413          	mv	s0,a0
    3130:	0ff57513          	zext.b	a0,a0
    3134:	000780e7          	jalr	a5
    3138:	00c12083          	lw	ra,12(sp)
    313c:	00040513          	mv	a0,s0
    3140:	00812403          	lw	s0,8(sp)
    3144:	01010113          	add	sp,sp,16
    3148:	00008067          	ret

0000314c <vbuf_printf>:
    314c:	000087b7          	lui	a5,0x8
    3150:	f9010113          	add	sp,sp,-112
    3154:	fff78793          	add	a5,a5,-1 # 7fff <_end+0x32f7>
    3158:	06812423          	sw	s0,104(sp)
    315c:	06912223          	sw	s1,100(sp)
    3160:	07212023          	sw	s2,96(sp)
    3164:	05712623          	sw	s7,76(sp)
    3168:	05812423          	sw	s8,72(sp)
    316c:	06112623          	sw	ra,108(sp)
    3170:	05312e23          	sw	s3,92(sp)
    3174:	05412c23          	sw	s4,88(sp)
    3178:	05512a23          	sw	s5,84(sp)
    317c:	05612823          	sw	s6,80(sp)
    3180:	05912223          	sw	s9,68(sp)
    3184:	05a12023          	sw	s10,64(sp)
    3188:	03b12e23          	sw	s11,60(sp)
    318c:	00050913          	mv	s2,a0
    3190:	00060493          	mv	s1,a2
    3194:	00058413          	mv	s0,a1
    3198:	00f12423          	sw	a5,8(sp)
    319c:	06300b93          	li	s7,99
    31a0:	07000c13          	li	s8,112
    31a4:	00044583          	lbu	a1,0(s0)
    31a8:	04059263          	bnez	a1,31ec <vbuf_printf+0xa0>
    31ac:	06c12083          	lw	ra,108(sp)
    31b0:	00000513          	li	a0,0
    31b4:	06812403          	lw	s0,104(sp)
    31b8:	06412483          	lw	s1,100(sp)
    31bc:	06012903          	lw	s2,96(sp)
    31c0:	05c12983          	lw	s3,92(sp)
    31c4:	05812a03          	lw	s4,88(sp)
    31c8:	05412a83          	lw	s5,84(sp)
    31cc:	05012b03          	lw	s6,80(sp)
    31d0:	04c12b83          	lw	s7,76(sp)
    31d4:	04812c03          	lw	s8,72(sp)
    31d8:	04412c83          	lw	s9,68(sp)
    31dc:	04012d03          	lw	s10,64(sp)
    31e0:	03c12d83          	lw	s11,60(sp)
    31e4:	07010113          	add	sp,sp,112
    31e8:	00008067          	ret
    31ec:	02500793          	li	a5,37
    31f0:	00f58a63          	beq	a1,a5,3204 <vbuf_printf+0xb8>
    31f4:	00090513          	mv	a0,s2
    31f8:	00000317          	auipc	t1,0x0
    31fc:	c58300e7          	jalr	-936(t1) # 2e50 <vbuf_putchar>
    3200:	1300006f          	j	3330 <vbuf_printf+0x1e4>
    3204:	02000793          	li	a5,32
    3208:	00f10e23          	sb	a5,28(sp)
    320c:	00812783          	lw	a5,8(sp)
    3210:	02012023          	sw	zero,32(sp)
    3214:	02012223          	sw	zero,36(sp)
    3218:	00f12c23          	sw	a5,24(sp)
    321c:	00a00793          	li	a5,10
    3220:	02f12623          	sw	a5,44(sp)
    3224:	00040a13          	mv	s4,s0
    3228:	00000c93          	li	s9,0
    322c:	00900b13          	li	s6,9
    3230:	06c00d93          	li	s11,108
    3234:	00100993          	li	s3,1
    3238:	02d00d13          	li	s10,45
    323c:	001a4583          	lbu	a1,1(s4)
    3240:	00140413          	add	s0,s0,1
    3244:	fd058793          	add	a5,a1,-48
    3248:	0ff7f793          	zext.b	a5,a5
    324c:	0afb6463          	bltu	s6,a5,32f4 <vbuf_printf+0x1a8>
    3250:	040c8a63          	beqz	s9,32a4 <vbuf_printf+0x158>
    3254:	00000513          	li	a0,0
    3258:	00a00713          	li	a4,10
    325c:	00044a03          	lbu	s4,0(s0)
    3260:	fd0a0a13          	add	s4,s4,-48
    3264:	0ffa7793          	zext.b	a5,s4
    3268:	00fb7e63          	bgeu	s6,a5,3284 <vbuf_printf+0x138>
    326c:	00a12c23          	sw	a0,24(sp)
    3270:	fff40413          	add	s0,s0,-1
    3274:	0080006f          	j	327c <vbuf_printf+0x130>
    3278:	00098c93          	mv	s9,s3
    327c:	00040a13          	mv	s4,s0
    3280:	fbdff06f          	j	323c <vbuf_printf+0xf0>
    3284:	00070593          	mv	a1,a4
    3288:	00e12623          	sw	a4,12(sp)
    328c:	00000317          	auipc	t1,0x0
    3290:	4ec300e7          	jalr	1260(t1) # 3778 <__mulsi3>
    3294:	00140413          	add	s0,s0,1
    3298:	00aa0533          	add	a0,s4,a0
    329c:	00c12703          	lw	a4,12(sp)
    32a0:	fbdff06f          	j	325c <vbuf_printf+0x110>
    32a4:	03000793          	li	a5,48
    32a8:	00f59463          	bne	a1,a5,32b0 <vbuf_printf+0x164>
    32ac:	00b10e23          	sb	a1,28(sp)
    32b0:	00000513          	li	a0,0
    32b4:	00a00713          	li	a4,10
    32b8:	00044a03          	lbu	s4,0(s0)
    32bc:	fd0a0a13          	add	s4,s4,-48
    32c0:	0ffa7793          	zext.b	a5,s4
    32c4:	00fb7863          	bgeu	s6,a5,32d4 <vbuf_printf+0x188>
    32c8:	00a12a23          	sw	a0,20(sp)
    32cc:	03312023          	sw	s3,32(sp)
    32d0:	fa1ff06f          	j	3270 <vbuf_printf+0x124>
    32d4:	00070593          	mv	a1,a4
    32d8:	00e12623          	sw	a4,12(sp)
    32dc:	00000317          	auipc	t1,0x0
    32e0:	49c300e7          	jalr	1180(t1) # 3778 <__mulsi3>
    32e4:	00140413          	add	s0,s0,1
    32e8:	00aa0533          	add	a0,s4,a0
    32ec:	00c12703          	lw	a4,12(sp)
    32f0:	fc9ff06f          	j	32b8 <vbuf_printf+0x16c>
    32f4:	fbf58713          	add	a4,a1,-65
    32f8:	0ff77713          	zext.b	a4,a4
    32fc:	01a73793          	sltiu	a5,a4,26
    3300:	02f12423          	sw	a5,40(sp)
    3304:	01900693          	li	a3,25
    3308:	00058793          	mv	a5,a1
    330c:	00e6e463          	bltu	a3,a4,3314 <vbuf_printf+0x1c8>
    3310:	02058793          	add	a5,a1,32
    3314:	15778863          	beq	a5,s7,3464 <vbuf_printf+0x318>
    3318:	04fbcc63          	blt	s7,a5,3370 <vbuf_printf+0x224>
    331c:	09a78a63          	beq	a5,s10,33b0 <vbuf_printf+0x264>
    3320:	00fd4c63          	blt	s10,a5,3338 <vbuf_printf+0x1ec>
    3324:	02500713          	li	a4,37
    3328:	00078593          	mv	a1,a5
    332c:	ece784e3          	beq	a5,a4,31f4 <vbuf_printf+0xa8>
    3330:	00140413          	add	s0,s0,1
    3334:	e71ff06f          	j	31a4 <vbuf_printf+0x58>
    3338:	02e00713          	li	a4,46
    333c:	f2e78ee3          	beq	a5,a4,3278 <vbuf_printf+0x12c>
    3340:	05c00713          	li	a4,92
    3344:	fee796e3          	bne	a5,a4,3330 <vbuf_printf+0x1e4>
    3348:	06800793          	li	a5,104
    334c:	14f58863          	beq	a1,a5,349c <vbuf_printf+0x350>
    3350:	12b7e663          	bltu	a5,a1,347c <vbuf_printf+0x330>
    3354:	06100793          	li	a5,97
    3358:	12f58e63          	beq	a1,a5,3494 <vbuf_printf+0x348>
    335c:	00090513          	mv	a0,s2
    3360:	00000317          	auipc	t1,0x0
    3364:	af0300e7          	jalr	-1296(t1) # 2e50 <vbuf_putchar>
    3368:	002a0413          	add	s0,s4,2
    336c:	f11ff06f          	j	327c <vbuf_printf+0x130>
    3370:	03878463          	beq	a5,s8,3398 <vbuf_printf+0x24c>
    3374:	00fc4a63          	blt	s8,a5,3388 <vbuf_printf+0x23c>
    3378:	06400713          	li	a4,100
    337c:	02e78e63          	beq	a5,a4,33b8 <vbuf_printf+0x26c>
    3380:	efb78ee3          	beq	a5,s11,327c <vbuf_printf+0x130>
    3384:	fadff06f          	j	3330 <vbuf_printf+0x1e4>
    3388:	07300713          	li	a4,115
    338c:	04e78863          	beq	a5,a4,33dc <vbuf_printf+0x290>
    3390:	07800713          	li	a4,120
    3394:	f8e79ee3          	bne	a5,a4,3330 <vbuf_printf+0x1e4>
    3398:	00800793          	li	a5,8
    339c:	00448993          	add	s3,s1,4
    33a0:	02f12623          	sw	a5,44(sp)
    33a4:	01010693          	add	a3,sp,16
    33a8:	01000613          	li	a2,16
    33ac:	0180006f          	j	33c4 <vbuf_printf+0x278>
    33b0:	03312223          	sw	s3,36(sp)
    33b4:	ec9ff06f          	j	327c <vbuf_printf+0x130>
    33b8:	00448993          	add	s3,s1,4
    33bc:	01010693          	add	a3,sp,16
    33c0:	00a00613          	li	a2,10
    33c4:	0004a583          	lw	a1,0(s1)
    33c8:	00090513          	mv	a0,s2
    33cc:	00000317          	auipc	t1,0x0
    33d0:	b28300e7          	jalr	-1240(t1) # 2ef4 <outnum>
    33d4:	00098493          	mv	s1,s3
    33d8:	f59ff06f          	j	3330 <vbuf_printf+0x1e4>
    33dc:	00448993          	add	s3,s1,4
    33e0:	0004a483          	lw	s1,0(s1)
    33e4:	00048513          	mv	a0,s1
    33e8:	00000317          	auipc	t1,0x0
    33ec:	2f0300e7          	jalr	752(t1) # 36d8 <strlen>
    33f0:	02412583          	lw	a1,36(sp)
    33f4:	00a12823          	sw	a0,16(sp)
    33f8:	01010613          	add	a2,sp,16
    33fc:	0015b593          	seqz	a1,a1
    3400:	00090513          	mv	a0,s2
    3404:	00000317          	auipc	t1,0x0
    3408:	a84300e7          	jalr	-1404(t1) # 2e88 <padding>
    340c:	0004c783          	lbu	a5,0(s1)
    3410:	02079663          	bnez	a5,343c <vbuf_printf+0x2f0>
    3414:	00048513          	mv	a0,s1
    3418:	00000317          	auipc	t1,0x0
    341c:	2c0300e7          	jalr	704(t1) # 36d8 <strlen>
    3420:	02412583          	lw	a1,36(sp)
    3424:	00a12823          	sw	a0,16(sp)
    3428:	01010613          	add	a2,sp,16
    342c:	00090513          	mv	a0,s2
    3430:	00000317          	auipc	t1,0x0
    3434:	a58300e7          	jalr	-1448(t1) # 2e88 <padding>
    3438:	f9dff06f          	j	33d4 <vbuf_printf+0x288>
    343c:	01812783          	lw	a5,24(sp)
    3440:	fff78713          	add	a4,a5,-1
    3444:	00e12c23          	sw	a4,24(sp)
    3448:	fc0786e3          	beqz	a5,3414 <vbuf_printf+0x2c8>
    344c:	00148493          	add	s1,s1,1
    3450:	fff4c583          	lbu	a1,-1(s1)
    3454:	00090513          	mv	a0,s2
    3458:	00000317          	auipc	t1,0x0
    345c:	9f8300e7          	jalr	-1544(t1) # 2e50 <vbuf_putchar>
    3460:	fadff06f          	j	340c <vbuf_printf+0x2c0>
    3464:	0004c583          	lbu	a1,0(s1)
    3468:	00090513          	mv	a0,s2
    346c:	00448993          	add	s3,s1,4
    3470:	00000317          	auipc	t1,0x0
    3474:	9e0300e7          	jalr	-1568(t1) # 2e50 <vbuf_putchar>
    3478:	f5dff06f          	j	33d4 <vbuf_printf+0x288>
    347c:	06e00793          	li	a5,110
    3480:	02f58263          	beq	a1,a5,34a4 <vbuf_printf+0x358>
    3484:	07200793          	li	a5,114
    3488:	ecf59ae3          	bne	a1,a5,335c <vbuf_printf+0x210>
    348c:	00d00593          	li	a1,13
    3490:	ecdff06f          	j	335c <vbuf_printf+0x210>
    3494:	00700593          	li	a1,7
    3498:	ec5ff06f          	j	335c <vbuf_printf+0x210>
    349c:	00800593          	li	a1,8
    34a0:	ebdff06f          	j	335c <vbuf_printf+0x210>
    34a4:	00a00593          	li	a1,10
    34a8:	eb5ff06f          	j	335c <vbuf_printf+0x210>

000034ac <printf>:
    34ac:	fb010113          	add	sp,sp,-80
    34b0:	04f12223          	sw	a5,68(sp)
    34b4:	000047b7          	lui	a5,0x4
    34b8:	cf47a783          	lw	a5,-780(a5) # 3cf4 <_stdout>
    34bc:	02112623          	sw	ra,44(sp)
    34c0:	02b12a23          	sw	a1,52(sp)
    34c4:	02c12c23          	sw	a2,56(sp)
    34c8:	02d12e23          	sw	a3,60(sp)
    34cc:	04e12023          	sw	a4,64(sp)
    34d0:	05012423          	sw	a6,72(sp)
    34d4:	05112623          	sw	a7,76(sp)
    34d8:	02078c63          	beqz	a5,3510 <printf+0x64>
    34dc:	00050593          	mv	a1,a0
    34e0:	03410613          	add	a2,sp,52
    34e4:	01010513          	add	a0,sp,16
    34e8:	00c12623          	sw	a2,12(sp)
    34ec:	00f12823          	sw	a5,16(sp)
    34f0:	00012a23          	sw	zero,20(sp)
    34f4:	00012c23          	sw	zero,24(sp)
    34f8:	00012e23          	sw	zero,28(sp)
    34fc:	00000317          	auipc	t1,0x0
    3500:	c50300e7          	jalr	-944(t1) # 314c <vbuf_printf>
    3504:	02c12083          	lw	ra,44(sp)
    3508:	05010113          	add	sp,sp,80
    350c:	00008067          	ret
    3510:	00000513          	li	a0,0
    3514:	ff1ff06f          	j	3504 <printf+0x58>

00003518 <vsprintf>:
    3518:	04050663          	beqz	a0,3564 <vsprintf+0x4c>
    351c:	fe010113          	add	sp,sp,-32
    3520:	00a12223          	sw	a0,4(sp)
    3524:	000087b7          	lui	a5,0x8
    3528:	00010513          	mv	a0,sp
    352c:	00112e23          	sw	ra,28(sp)
    3530:	00f12623          	sw	a5,12(sp)
    3534:	00012023          	sw	zero,0(sp)
    3538:	00012423          	sw	zero,8(sp)
    353c:	00000317          	auipc	t1,0x0
    3540:	c10300e7          	jalr	-1008(t1) # 314c <vbuf_printf>
    3544:	00812703          	lw	a4,8(sp)
    3548:	00412783          	lw	a5,4(sp)
    354c:	00e787b3          	add	a5,a5,a4
    3550:	00078023          	sb	zero,0(a5) # 8000 <_end+0x32f8>
    3554:	01c12083          	lw	ra,28(sp)
    3558:	00812503          	lw	a0,8(sp)
    355c:	02010113          	add	sp,sp,32
    3560:	00008067          	ret
    3564:	00000513          	li	a0,0
    3568:	00008067          	ret

0000356c <vsnprintf>:
    356c:	06050063          	beqz	a0,35cc <vsnprintf+0x60>
    3570:	00058793          	mv	a5,a1
    3574:	00000713          	li	a4,0
    3578:	04058c63          	beqz	a1,35d0 <vsnprintf+0x64>
    357c:	fe010113          	add	sp,sp,-32
    3580:	00a12223          	sw	a0,4(sp)
    3584:	00060593          	mv	a1,a2
    3588:	00010513          	mv	a0,sp
    358c:	00068613          	mv	a2,a3
    3590:	00112e23          	sw	ra,28(sp)
    3594:	00f12623          	sw	a5,12(sp)
    3598:	00012023          	sw	zero,0(sp)
    359c:	00012423          	sw	zero,8(sp)
    35a0:	00000317          	auipc	t1,0x0
    35a4:	bac300e7          	jalr	-1108(t1) # 314c <vbuf_printf>
    35a8:	00812703          	lw	a4,8(sp)
    35ac:	00412783          	lw	a5,4(sp)
    35b0:	00e787b3          	add	a5,a5,a4
    35b4:	00078023          	sb	zero,0(a5)
    35b8:	00812703          	lw	a4,8(sp)
    35bc:	01c12083          	lw	ra,28(sp)
    35c0:	02010113          	add	sp,sp,32
    35c4:	00070513          	mv	a0,a4
    35c8:	00008067          	ret
    35cc:	00000713          	li	a4,0
    35d0:	00070513          	mv	a0,a4
    35d4:	00008067          	ret

000035d8 <sprintf>:
    35d8:	fb010113          	add	sp,sp,-80
    35dc:	02112623          	sw	ra,44(sp)
    35e0:	02c12c23          	sw	a2,56(sp)
    35e4:	02d12e23          	sw	a3,60(sp)
    35e8:	04e12023          	sw	a4,64(sp)
    35ec:	04f12223          	sw	a5,68(sp)
    35f0:	05012423          	sw	a6,72(sp)
    35f4:	05112623          	sw	a7,76(sp)
    35f8:	04050663          	beqz	a0,3644 <sprintf+0x6c>
    35fc:	000087b7          	lui	a5,0x8
    3600:	03810613          	add	a2,sp,56
    3604:	00a12a23          	sw	a0,20(sp)
    3608:	01010513          	add	a0,sp,16
    360c:	00f12e23          	sw	a5,28(sp)
    3610:	00c12623          	sw	a2,12(sp)
    3614:	00012823          	sw	zero,16(sp)
    3618:	00012c23          	sw	zero,24(sp)
    361c:	00000317          	auipc	t1,0x0
    3620:	b30300e7          	jalr	-1232(t1) # 314c <vbuf_printf>
    3624:	01812703          	lw	a4,24(sp)
    3628:	01412783          	lw	a5,20(sp)
    362c:	00e787b3          	add	a5,a5,a4
    3630:	00078023          	sb	zero,0(a5) # 8000 <_end+0x32f8>
    3634:	01812503          	lw	a0,24(sp)
    3638:	02c12083          	lw	ra,44(sp)
    363c:	05010113          	add	sp,sp,80
    3640:	00008067          	ret
    3644:	00000513          	li	a0,0
    3648:	ff1ff06f          	j	3638 <sprintf+0x60>

0000364c <snprintf>:
    364c:	fb010113          	add	sp,sp,-80
    3650:	04f12223          	sw	a5,68(sp)
    3654:	02112623          	sw	ra,44(sp)
    3658:	02d12e23          	sw	a3,60(sp)
    365c:	04e12023          	sw	a4,64(sp)
    3660:	05012423          	sw	a6,72(sp)
    3664:	05112623          	sw	a7,76(sp)
    3668:	00000793          	li	a5,0
    366c:	04058863          	beqz	a1,36bc <snprintf+0x70>
    3670:	04050663          	beqz	a0,36bc <snprintf+0x70>
    3674:	00058313          	mv	t1,a1
    3678:	00a12a23          	sw	a0,20(sp)
    367c:	00060593          	mv	a1,a2
    3680:	01010513          	add	a0,sp,16
    3684:	03c10613          	add	a2,sp,60
    3688:	00c12623          	sw	a2,12(sp)
    368c:	00012823          	sw	zero,16(sp)
    3690:	00012c23          	sw	zero,24(sp)
    3694:	00612e23          	sw	t1,28(sp)
    3698:	00000317          	auipc	t1,0x0
    369c:	ab4300e7          	jalr	-1356(t1) # 314c <vbuf_printf>
    36a0:	01812683          	lw	a3,24(sp)
    36a4:	01c12703          	lw	a4,28(sp)
    36a8:	01412783          	lw	a5,20(sp)
    36ac:	02e6d063          	bge	a3,a4,36cc <snprintf+0x80>
    36b0:	00d787b3          	add	a5,a5,a3
    36b4:	00078023          	sb	zero,0(a5)
    36b8:	01812783          	lw	a5,24(sp)
    36bc:	02c12083          	lw	ra,44(sp)
    36c0:	00078513          	mv	a0,a5
    36c4:	05010113          	add	sp,sp,80
    36c8:	00008067          	ret
    36cc:	00e787b3          	add	a5,a5,a4
    36d0:	fe078fa3          	sb	zero,-1(a5)
    36d4:	fe5ff06f          	j	36b8 <snprintf+0x6c>

000036d8 <strlen>:
    36d8:	00050793          	mv	a5,a0
    36dc:	0007c703          	lbu	a4,0(a5)
    36e0:	00071663          	bnez	a4,36ec <strlen+0x14>
    36e4:	40a78533          	sub	a0,a5,a0
    36e8:	00008067          	ret
    36ec:	00178793          	add	a5,a5,1
    36f0:	fedff06f          	j	36dc <strlen+0x4>

000036f4 <strnlen>:
    36f4:	00000793          	li	a5,0
    36f8:	00058e63          	beqz	a1,3714 <strnlen+0x20>
    36fc:	00050c63          	beqz	a0,3714 <strnlen+0x20>
    3700:	00b505b3          	add	a1,a0,a1
    3704:	00050793          	mv	a5,a0
    3708:	0007c703          	lbu	a4,0(a5)
    370c:	00071863          	bnez	a4,371c <strnlen+0x28>
    3710:	40a787b3          	sub	a5,a5,a0
    3714:	00078513          	mv	a0,a5
    3718:	00008067          	ret
    371c:	feb78ae3          	beq	a5,a1,3710 <strnlen+0x1c>
    3720:	00178793          	add	a5,a5,1
    3724:	fe5ff06f          	j	3708 <strnlen+0x14>

00003728 <memcpy>:
    3728:	00c58633          	add	a2,a1,a2
    372c:	00050793          	mv	a5,a0
    3730:	00c59463          	bne	a1,a2,3738 <memcpy+0x10>
    3734:	00008067          	ret
    3738:	0005c703          	lbu	a4,0(a1)
    373c:	00178793          	add	a5,a5,1
    3740:	00158593          	add	a1,a1,1
    3744:	fee78fa3          	sb	a4,-1(a5)
    3748:	fe9ff06f          	j	3730 <memcpy+0x8>

0000374c <memccpy>:
    374c:	00d586b3          	add	a3,a1,a3
    3750:	0ff67613          	zext.b	a2,a2
    3754:	00d58e63          	beq	a1,a3,3770 <memccpy+0x24>
    3758:	00158593          	add	a1,a1,1
    375c:	fff5c783          	lbu	a5,-1(a1)
    3760:	00150513          	add	a0,a0,1
    3764:	fef50fa3          	sb	a5,-1(a0)
    3768:	fec796e3          	bne	a5,a2,3754 <memccpy+0x8>
    376c:	00008067          	ret
    3770:	00000513          	li	a0,0
    3774:	00008067          	ret

00003778 <__mulsi3>:
    3778:	00000793          	li	a5,0
    377c:	00059663          	bnez	a1,3788 <__mulsi3+0x10>
    3780:	00078513          	mv	a0,a5
    3784:	00008067          	ret
    3788:	0015f713          	and	a4,a1,1
    378c:	00070463          	beqz	a4,3794 <__mulsi3+0x1c>
    3790:	00a787b3          	add	a5,a5,a0
    3794:	00151513          	sll	a0,a0,0x1
    3798:	0015d593          	srl	a1,a1,0x1
    379c:	fe1ff06f          	j	377c <__mulsi3+0x4>

000037a0 <DivideMod>:
    37a0:	01f59793          	sll	a5,a1,0x1f
    37a4:	02000693          	li	a3,32
    37a8:	00000713          	li	a4,0
    37ac:	00100313          	li	t1,1
    37b0:	800008b7          	lui	a7,0x80000
    37b4:	00171713          	sll	a4,a4,0x1
    37b8:	00f56a63          	bltu	a0,a5,37cc <DivideMod+0x2c>
    37bc:	00078863          	beqz	a5,37cc <DivideMod+0x2c>
    37c0:	00b36663          	bltu	t1,a1,37cc <DivideMod+0x2c>
    37c4:	40f50533          	sub	a0,a0,a5
    37c8:	00176713          	or	a4,a4,1
    37cc:	01e59813          	sll	a6,a1,0x1e
    37d0:	0017d793          	srl	a5,a5,0x1
    37d4:	01187833          	and	a6,a6,a7
    37d8:	fff68693          	add	a3,a3,-1
    37dc:	00f867b3          	or	a5,a6,a5
    37e0:	0015d593          	srl	a1,a1,0x1
    37e4:	fc0698e3          	bnez	a3,37b4 <DivideMod+0x14>
    37e8:	00060463          	beqz	a2,37f0 <DivideMod+0x50>
    37ec:	00050713          	mv	a4,a0
    37f0:	00070513          	mv	a0,a4
    37f4:	00008067          	ret

000037f8 <__udivsi3>:
    37f8:	00000613          	li	a2,0
    37fc:	00000317          	auipc	t1,0x0
    3800:	fa430067          	jr	-92(t1) # 37a0 <DivideMod>

00003804 <__divsi3>:
    3804:	ff010113          	add	sp,sp,-16
    3808:	00112623          	sw	ra,12(sp)
    380c:	00812423          	sw	s0,8(sp)
    3810:	00050793          	mv	a5,a0
    3814:	00058713          	mv	a4,a1
    3818:	02055e63          	bgez	a0,3854 <__divsi3+0x50>
    381c:	40a007b3          	neg	a5,a0
    3820:	00100413          	li	s0,1
    3824:	0205cc63          	bltz	a1,385c <__divsi3+0x58>
    3828:	00000613          	li	a2,0
    382c:	00078513          	mv	a0,a5
    3830:	00000317          	auipc	t1,0x0
    3834:	f70300e7          	jalr	-144(t1) # 37a0 <DivideMod>
    3838:	03c0006f          	j	3874 <__divsi3+0x70>
    383c:	00c12083          	lw	ra,12(sp)
    3840:	00812403          	lw	s0,8(sp)
    3844:	00000613          	li	a2,0
    3848:	01010113          	add	sp,sp,16
    384c:	00000317          	auipc	t1,0x0
    3850:	f5430067          	jr	-172(t1) # 37a0 <DivideMod>
    3854:	fe05d4e3          	bgez	a1,383c <__divsi3+0x38>
    3858:	00000413          	li	s0,0
    385c:	40e005b3          	neg	a1,a4
    3860:	00000613          	li	a2,0
    3864:	00078513          	mv	a0,a5
    3868:	00000317          	auipc	t1,0x0
    386c:	f38300e7          	jalr	-200(t1) # 37a0 <DivideMod>
    3870:	00041463          	bnez	s0,3878 <__divsi3+0x74>
    3874:	40a00533          	neg	a0,a0
    3878:	00c12083          	lw	ra,12(sp)
    387c:	00812403          	lw	s0,8(sp)
    3880:	01010113          	add	sp,sp,16
    3884:	00008067          	ret

00003888 <__umodsi3>:
    3888:	00100613          	li	a2,1
    388c:	00000317          	auipc	t1,0x0
    3890:	f1430067          	jr	-236(t1) # 37a0 <DivideMod>

00003894 <__modsi3>:
    3894:	ff010113          	add	sp,sp,-16
    3898:	00112623          	sw	ra,12(sp)
    389c:	00812423          	sw	s0,8(sp)
    38a0:	00912223          	sw	s1,4(sp)
    38a4:	00050413          	mv	s0,a0
    38a8:	00058493          	mv	s1,a1
    38ac:	00000317          	auipc	t1,0x0
    38b0:	f58300e7          	jalr	-168(t1) # 3804 <__divsi3>
    38b4:	00050593          	mv	a1,a0
    38b8:	00048513          	mv	a0,s1
    38bc:	00000317          	auipc	t1,0x0
    38c0:	ebc300e7          	jalr	-324(t1) # 3778 <__mulsi3>
    38c4:	00c12083          	lw	ra,12(sp)
    38c8:	40a40533          	sub	a0,s0,a0
    38cc:	00412483          	lw	s1,4(sp)
    38d0:	00812403          	lw	s0,8(sp)
    38d4:	01010113          	add	sp,sp,16
    38d8:	00008067          	ret
    38dc:	6e55                	lui	t3,0x15
    38de:	6168                	flw	fa0,68(a0)
    38e0:	646e                	flw	fs0,216(sp)
    38e2:	656c                	flw	fa1,76(a0)
    38e4:	2064                	fld	fs1,192(s0)
    38e6:	5249                	li	tp,-14
    38e8:	2151                	jal	3d6c <ptr+0x6c>
    38ea:	0000                	unimp
    38ec:	6e55                	lui	t3,0x15
    38ee:	6168                	flw	fa0,68(a0)
    38f0:	646e                	flw	fs0,216(sp)
    38f2:	656c                	flw	fa1,76(a0)
    38f4:	2064                	fld	fs1,192(s0)
    38f6:	4345                	li	t1,17
    38f8:	4c41                	li	s8,16
    38fa:	3a4c                	fld	fa1,176(a2)
    38fc:	5020                	lw	s0,96(s0)
    38fe:	30252043          	fmadd.s	ft0,fa0,ft2,ft6,rdn
    3902:	7838                	flw	fa4,112(s0)
    3904:	0a21                	add	s4,s4,8
    3906:	0000                	unimp
    3908:	6d6f682f          	.4byte	0x6d6f682f
    390c:	2f65                	jal	40c4 <ptr+0x3c4>
    390e:	6f72                	flw	ft10,28(sp)
    3910:	2f62                	fld	ft10,24(sp)
    3912:	6572                	flw	fa0,28(sp)
    3914:	6f70                	flw	fa2,92(a4)
    3916:	7369722f          	.4byte	0x7369722f
    391a:	722d7663          	bgeu	s10,sp,4046 <ptr+0x346>
    391e:	616c702f          	.4byte	0x616c702f
    3922:	6674                	flw	fa3,76(a2)
    3924:	2f6d726f          	jal	tp,dac1a <_end+0xd5f12>
    3928:	616d                	add	sp,sp,240
    392a:	6e696863          	bltu	s2,t1,401a <ptr+0x31a>
    392e:	2d65                	jal	3fe6 <ptr+0x2e6>
    3930:	2f6d6973          	csrrs	s2,0x2f6,26
    3934:	7865                	lui	a6,0xffff9
    3936:	74706563          	bltu	zero,t2,4080 <ptr+0x380>
    393a:	6f69                	lui	t5,0x1a
    393c:	2e6e                	fld	ft8,216(sp)
    393e:	22210063          	beq	sp,sp,3b5e <__modsi3+0x2ca>
    3942:	6e55                	lui	t3,0x15
    3944:	6168                	flw	fa0,68(a0)
    3946:	646e                	flw	fs0,216(sp)
    3948:	656c                	flw	fa1,76(a0)
    394a:	2064                	fld	fs1,192(s0)
    394c:	7865                	lui	a6,0xffff9
    394e:	74706563          	bltu	zero,t2,4098 <ptr+0x398>
    3952:	6f69                	lui	t5,0x1a
    3954:	226e                	fld	ft4,216(sp)
    3956:	0000                	unimp
    3958:	5341                	li	t1,-16
    395a:	54524553          	.4byte	0x54524553
    395e:	0000                	unimp
    3960:	7845                	lui	a6,0xffff1
    3962:	74706563          	bltu	zero,t2,40ac <ptr+0x3ac>
    3966:	6f69                	lui	t5,0x1a
    3968:	3a6e                	fld	fs4,248(sp)
    396a:	5020                	lw	s0,96(s0)
    396c:	30253d43          	fmadd.s	fs10,fa0,ft2,ft6,rup
    3970:	7838                	flw	fa4,112(s0)
    3972:	4320                	lw	s0,64(a4)
    3974:	7561                	lui	a0,0xffff8
    3976:	253d6573          	csrrs	a0,0x253,26
    397a:	2078                	fld	fa4,192(s0)
    397c:	74617453          	.4byte	0x74617453
    3980:	7375                	lui	t1,0xffffd
    3982:	253d                	jal	3fb0 <ptr+0x2b0>
    3984:	3830                	fld	fa2,112(s0)
    3986:	0a78                	add	a4,sp,284
    3988:	0000                	unimp
    398a:	0000                	unimp
    398c:	4552                	lw	a0,20(sp)
    398e:	2e252047          	.4byte	0x2e252047
    3992:	6432                	flw	fs0,12(sp)
    3994:	203a                	fld	ft0,392(sp)
    3996:	3025                	jal	31be <vbuf_printf+0x72>
    3998:	7838                	flw	fa4,112(s0)
    399a:	000a                	c.slli	zero,0x2
    399c:	7325                	lui	t1,0xfffe9
    399e:	203a                	fld	ft0,392(sp)
    39a0:	7325                	lui	t1,0xfffe9
    39a2:	2820                	fld	fs0,80(s0)
    39a4:	7325                	lui	t1,0xfffe9
    39a6:	253a                	fld	fa0,392(sp)
    39a8:	2964                	fld	fs1,208(a0)
    39aa:	000a                	c.slli	zero,0x2
    39ac:	540a                	lw	s0,160(sp)
    39ae:	7365                	lui	t1,0xffff9
    39b0:	3a74                	fld	fa3,240(a2)
    39b2:	0000                	unimp
    39b4:	2e31                	jal	3cd0 <__modsi3+0x43c>
    39b6:	4920                	lw	s0,80(a0)
    39b8:	696e                	flw	fs2,216(sp)
    39ba:	6974                	flw	fa3,84(a0)
    39bc:	6c61                	lui	s8,0x18
    39be:	7369                	lui	t1,0xffffa
    39c0:	6465                	lui	s0,0x19
    39c2:	6420                	flw	fs0,72(s0)
    39c4:	7461                	lui	s0,0xffff8
    39c6:	0061                	c.nop	24
    39c8:	616d                	add	sp,sp,240
    39ca:	6e69                	lui	t3,0x1a
    39cc:	632e                	flw	ft6,200(sp)
    39ce:	0000                	unimp
    39d0:	6176                	flw	ft2,92(sp)
    39d2:	2072                	fld	ft0,280(sp)
    39d4:	3d3d                	jal	3812 <__divsi3+0xe>
    39d6:	3020                	fld	fs0,96(s0)
    39d8:	3178                	fld	fa4,224(a0)
    39da:	3332                	fld	ft6,296(sp)
    39dc:	0034                	add	a3,sp,8
    39de:	0000                	unimp
    39e0:	7675                	lui	a2,0xffffd
    39e2:	7261                	lui	tp,0xffff8
    39e4:	3d20                	fld	fs0,120(a0)
    39e6:	203d                	jal	3a14 <__modsi3+0x180>
    39e8:	7830                	flw	fa2,112(s0)
    39ea:	0030                	add	a2,sp,8
    39ec:	2e32                	fld	ft8,264(sp)
    39ee:	4d20                	lw	s0,88(a0)
    39f0:	6c75                	lui	s8,0x1d
    39f2:	6974                	flw	fa3,84(a0)
    39f4:	6c70                	flw	fa2,92(s0)
    39f6:	0079                	c.nop	30
    39f8:	6176                	flw	ft2,92(sp)
    39fa:	2072                	fld	ft0,280(sp)
    39fc:	3d3d                	jal	383a <__divsi3+0x36>
    39fe:	3120                	fld	fs0,96(a0)
    3a00:	30383933          	.4byte	0x30383933
    3a04:	0000                	unimp
    3a06:	0000                	unimp
    3a08:	6176                	flw	ft2,92(sp)
    3a0a:	2072                	fld	ft0,280(sp)
    3a0c:	3d3d                	jal	384a <__divsi3+0x46>
    3a0e:	2d20                	fld	fs0,88(a0)
    3a10:	00000033          	add	zero,zero,zero
    3a14:	6176                	flw	ft2,92(sp)
    3a16:	2072                	fld	ft0,280(sp)
    3a18:	3d3d                	jal	3856 <__divsi3+0x52>
    3a1a:	2d20                	fld	fs0,88(a0)
    3a1c:	3536                	fld	fa0,360(sp)
    3a1e:	0000                	unimp
    3a20:	6176                	flw	ft2,92(sp)
    3a22:	2072                	fld	ft0,280(sp)
    3a24:	3d3d                	jal	3862 <__divsi3+0x5e>
    3a26:	2820                	fld	fs0,80(s0)
    3a28:	352d                	jal	3852 <__divsi3+0x4e>
    3a2a:	2d2a                	fld	fs10,136(sp)
    3a2c:	3331                	jal	3738 <memcpy+0x10>
    3a2e:	0029                	c.nop	10
    3a30:	6176                	flw	ft2,92(sp)
    3a32:	2072                	fld	ft0,280(sp)
    3a34:	3d3d                	jal	3872 <__divsi3+0x6e>
    3a36:	2820                	fld	fs0,80(s0)
    3a38:	312d                	jal	3662 <snprintf+0x16>
    3a3a:	3332                	fld	ft6,296(sp)
    3a3c:	3231                	jal	3348 <vbuf_printf+0x1fc>
    3a3e:	35313433          	.4byte	0x35313433
    3a42:	392a                	fld	fs2,168(sp)
    3a44:	3636                	fld	fa2,360(sp)
    3a46:	3534                	fld	fa3,104(a0)
    3a48:	3336                	fld	ft6,360(sp)
    3a4a:	0029                	c.nop	10
    3a4c:	44202e33          	.4byte	0x44202e33
    3a50:	7669                	lui	a2,0xffffa
    3a52:	6469                	lui	s0,0x1a
    3a54:	0065                	c.nop	25
    3a56:	0000                	unimp
    3a58:	6176                	flw	ft2,92(sp)
    3a5a:	2072                	fld	ft0,280(sp)
    3a5c:	3d3d                	jal	389a <__modsi3+0x6>
    3a5e:	3220                	fld	fs0,96(a2)
    3a60:	00363937          	lui	s2,0x363
    3a64:	6176                	flw	ft2,92(sp)
    3a66:	2072                	fld	ft0,280(sp)
    3a68:	3d3d                	jal	38a6 <__modsi3+0x12>
    3a6a:	3920                	fld	fs0,112(a0)
    3a6c:	0036                	c.slli	zero,0xd
    3a6e:	0000                	unimp
    3a70:	6176                	flw	ft2,92(sp)
    3a72:	2072                	fld	ft0,280(sp)
    3a74:	3d3d                	jal	38b2 <__modsi3+0x1e>
    3a76:	2d20                	fld	fs0,88(a0)
    3a78:	3736                	fld	fa4,360(sp)
    3a7a:	0000                	unimp
    3a7c:	2e34                	fld	fa3,88(a2)
    3a7e:	5320                	lw	s0,96(a4)
    3a80:	6968                	flw	fa0,84(a0)
    3a82:	7466                	flw	fs0,120(sp)
    3a84:	6c20                	flw	fs0,88(s0)
    3a86:	6665                	lui	a2,0x19
    3a88:	0074                	add	a3,sp,12
    3a8a:	0000                	unimp
    3a8c:	6176                	flw	ft2,92(sp)
    3a8e:	2072                	fld	ft0,280(sp)
    3a90:	3d3d                	jal	38ce <__modsi3+0x3a>
    3a92:	3020                	fld	fs0,96(s0)
    3a94:	3878                	fld	fa4,240(s0)
    3a96:	3030                	fld	fa2,96(s0)
    3a98:	3030                	fld	fa2,96(s0)
    3a9a:	3030                	fld	fa2,96(s0)
    3a9c:	0030                	add	a2,sp,8
    3a9e:	0000                	unimp
    3aa0:	2e35                	jal	3ddc <ptr+0xdc>
    3aa2:	5320                	lw	s0,96(a4)
    3aa4:	6968                	flw	fa0,84(a0)
    3aa6:	7466                	flw	fs0,120(sp)
    3aa8:	7220                	flw	fs0,96(a2)
    3aaa:	6769                	lui	a4,0x1a
    3aac:	7468                	flw	fa0,108(s0)
    3aae:	0000                	unimp
    3ab0:	7825                	lui	a6,0xfffe9
    3ab2:	000a                	c.slli	zero,0x2
    3ab4:	7675                	lui	a2,0xffffd
    3ab6:	7261                	lui	tp,0xffff8
    3ab8:	3d20                	fld	fs0,120(a0)
    3aba:	203d                	jal	3ae8 <__modsi3+0x254>
    3abc:	7830                	flw	fa2,112(s0)
    3abe:	3034                	fld	fa3,96(s0)
    3ac0:	3030                	fld	fa2,96(s0)
    3ac2:	3030                	fld	fa2,96(s0)
    3ac4:	3030                	fld	fa2,96(s0)
    3ac6:	0000                	unimp
    3ac8:	7675                	lui	a2,0xffffd
    3aca:	7261                	lui	tp,0xffff8
    3acc:	3d20                	fld	fs0,120(a0)
    3ace:	203d                	jal	3afc <__modsi3+0x268>
    3ad0:	7830                	flw	fa2,112(s0)
    3ad2:	3030                	fld	fa2,96(s0)
    3ad4:	3030                	fld	fa2,96(s0)
    3ad6:	3030                	fld	fa2,96(s0)
    3ad8:	3130                	fld	fa2,96(a0)
    3ada:	0000                	unimp
    3adc:	2e36                	fld	ft8,328(sp)
    3ade:	5320                	lw	s0,96(a4)
    3ae0:	6968                	flw	fa0,84(a0)
    3ae2:	7466                	flw	fs0,120(sp)
    3ae4:	7220                	flw	fs0,96(a2)
    3ae6:	6769                	lui	a4,0x1a
    3ae8:	7468                	flw	fa0,108(s0)
    3aea:	6120                	flw	fs0,64(a0)
    3aec:	6972                	flw	fs2,28(sp)
    3aee:	6874                	flw	fa3,84(s0)
    3af0:	656d                	lui	a0,0x1b
    3af2:	6974                	flw	fa3,84(a0)
    3af4:	00000063          	beqz	zero,3af4 <__modsi3+0x260>
    3af8:	6176                	flw	ft2,92(sp)
    3afa:	2072                	fld	ft0,280(sp)
    3afc:	3d3d                	jal	393a <__modsi3+0xa6>
    3afe:	3020                	fld	fs0,96(s0)
    3b00:	4378                	lw	a4,68(a4)
    3b02:	3030                	fld	fa2,96(s0)
    3b04:	3030                	fld	fa2,96(s0)
    3b06:	3030                	fld	fa2,96(s0)
    3b08:	0030                	add	a2,sp,8
    3b0a:	0000                	unimp
    3b0c:	53202e37          	lui	t3,0x53202
    3b10:	6769                	lui	a4,0x1a
    3b12:	656e                	flw	fa0,216(sp)
    3b14:	2064                	fld	fs1,192(s0)
    3b16:	706d6f63          	bltu	s10,t1,4234 <ptr+0x534>
    3b1a:	7261                	lui	tp,0xffff8
    3b1c:	7369                	lui	t1,0xffffa
    3b1e:	6f69                	lui	t5,0x1a
    3b20:	006e                	c.slli	zero,0x1b
    3b22:	0000                	unimp
    3b24:	6176                	flw	ft2,92(sp)
    3b26:	2072                	fld	ft0,280(sp)
    3b28:	203c                	fld	fa5,64(s0)
    3b2a:	0031                	c.nop	12
    3b2c:	6176                	flw	ft2,92(sp)
    3b2e:	2072                	fld	ft0,280(sp)
    3b30:	203c                	fld	fa5,64(s0)
    3b32:	0078                	add	a4,sp,12
    3b34:	2821                	jal	3b4c <__modsi3+0x2b8>
    3b36:	6176                	flw	ft2,92(sp)
    3b38:	2072                	fld	ft0,280(sp)
    3b3a:	203e                	fld	ft0,456(sp)
    3b3c:	2978                	fld	fa4,208(a0)
    3b3e:	0000                	unimp
    3b40:	6176                	flw	ft2,92(sp)
    3b42:	2072                	fld	ft0,280(sp)
    3b44:	203e                	fld	ft0,456(sp)
    3b46:	0078                	add	a4,sp,12
    3b48:	2078                	fld	fa4,192(s0)
    3b4a:	3d3c                	fld	fa5,120(a0)
    3b4c:	7620                	flw	fs0,104(a2)
    3b4e:	7261                	lui	tp,0xffff8
    3b50:	0000                	unimp
    3b52:	0000                	unimp
    3b54:	2e38                	fld	fa4,88(a2)
    3b56:	5720                	lw	s0,104(a4)
    3b58:	2064726f          	jal	tp,4ad5e <_end+0x46056>
    3b5c:	6361                	lui	t1,0x18
    3b5e:	73736563          	bltu	t1,s7,4288 <ptr+0x588>
    3b62:	0000                	unimp
    3b64:	7675                	lui	a2,0xffffd
    3b66:	7261                	lui	tp,0xffff8
    3b68:	3d20                	fld	fs0,120(a0)
    3b6a:	203d                	jal	3b98 <__modsi3+0x304>
    3b6c:	7830                	flw	fa2,112(s0)
    3b6e:	3231                	jal	347a <vbuf_printf+0x32e>
    3b70:	36353433          	.4byte	0x36353433
    3b74:	00003837          	lui	a6,0x3
    3b78:	3d207773          	csrrc	a4,pmpaddr34,0
    3b7c:	203d                	jal	3baa <__modsi3+0x316>
    3b7e:	7830                	flw	fa2,112(s0)
    3b80:	3635                	jal	36ac <snprintf+0x60>
    3b82:	00003837          	lui	a6,0x3
    3b86:	0000                	unimp
    3b88:	702a                	flw	ft0,168(sp)
    3b8a:	2b2b7773          	csrrc	a4,0x2b2,22
    3b8e:	3d20                	fld	fs0,120(a0)
    3b90:	203d                	jal	3bbe <__modsi3+0x32a>
    3b92:	7830                	flw	fa2,112(s0)
    3b94:	3635                	jal	36c0 <snprintf+0x74>
    3b96:	00003837          	lui	a6,0x3
    3b9a:	0000                	unimp
    3b9c:	702a                	flw	ft0,168(sp)
    3b9e:	2b2b7773          	csrrc	a4,0x2b2,22
    3ba2:	3d20                	fld	fs0,120(a0)
    3ba4:	203d                	jal	3bd2 <__modsi3+0x33e>
    3ba6:	7830                	flw	fa2,112(s0)
    3ba8:	3231                	jal	34b4 <printf+0x8>
    3baa:	00003433          	snez	s0,zero
    3bae:	0000                	unimp
    3bb0:	702a                	flw	ft0,168(sp)
    3bb2:	2b2b7773          	csrrc	a4,0x2b2,22
    3bb6:	3d20                	fld	fs0,120(a0)
    3bb8:	203d                	jal	3be6 <__modsi3+0x352>
    3bba:	7830                	flw	fa2,112(s0)
    3bbc:	65666163          	bltu	a2,s6,41fe <ptr+0x4fe>
    3bc0:	0000                	unimp
    3bc2:	0000                	unimp
    3bc4:	702a                	flw	ft0,168(sp)
    3bc6:	2b2b7773          	csrrc	a4,0x2b2,22
    3bca:	3d20                	fld	fs0,120(a0)
    3bcc:	203d                	jal	3bfa <__modsi3+0x366>
    3bce:	7830                	flw	fa2,112(s0)
    3bd0:	6162                	flw	ft2,24(sp)
    3bd2:	6562                	flw	fa0,24(sp)
    3bd4:	0000                	unimp
    3bd6:	0000                	unimp
    3bd8:	2e39                	jal	3ef6 <ptr+0x1f6>
    3bda:	4220                	lw	s0,64(a2)
    3bdc:	7479                	lui	s0,0xffffe
    3bde:	2065                	jal	3c86 <__modsi3+0x3f2>
    3be0:	6361                	lui	t1,0x18
    3be2:	73736563          	bltu	t1,s7,430c <ptr+0x60c>
    3be6:	0000                	unimp
    3be8:	3d206273          	csrrs	tp,pmpaddr34,0
    3bec:	203d                	jal	3c1a <__modsi3+0x386>
    3bee:	7830                	flw	fa2,112(s0)
    3bf0:	00003837          	lui	a6,0x3
    3bf4:	702a                	flw	ft0,168(sp)
    3bf6:	2b2b6273          	csrrs	tp,0x2b2,22
    3bfa:	3d20                	fld	fs0,120(a0)
    3bfc:	203d                	jal	3c2a <__modsi3+0x396>
    3bfe:	7830                	flw	fa2,112(s0)
    3c00:	00003837          	lui	a6,0x3
    3c04:	702a                	flw	ft0,168(sp)
    3c06:	2b2b6273          	csrrs	tp,0x2b2,22
    3c0a:	3d20                	fld	fs0,120(a0)
    3c0c:	203d                	jal	3c3a <__modsi3+0x3a6>
    3c0e:	7830                	flw	fa2,112(s0)
    3c10:	3635                	jal	373c <memcpy+0x14>
    3c12:	0000                	unimp
    3c14:	702a                	flw	ft0,168(sp)
    3c16:	2b2b6273          	csrrs	tp,0x2b2,22
    3c1a:	3d20                	fld	fs0,120(a0)
    3c1c:	203d                	jal	3c4a <__modsi3+0x3b6>
    3c1e:	7830                	flw	fa2,112(s0)
    3c20:	00003433          	snez	s0,zero
    3c24:	702a                	flw	ft0,168(sp)
    3c26:	2b2b6273          	csrrs	tp,0x2b2,22
    3c2a:	3d20                	fld	fs0,120(a0)
    3c2c:	203d                	jal	3c5a <__modsi3+0x3c6>
    3c2e:	7830                	flw	fa2,112(s0)
    3c30:	3231                	jal	353c <vsprintf+0x24>
    3c32:	0000                	unimp
    3c34:	7675                	lui	a2,0xffffd
    3c36:	7261                	lui	tp,0xffff8
    3c38:	3d20                	fld	fs0,120(a0)
    3c3a:	203d                	jal	3c68 <__modsi3+0x3d4>
    3c3c:	7830                	flw	fa2,112(s0)
    3c3e:	3231                	jal	354a <vsprintf+0x32>
    3c40:	36353433          	.4byte	0x36353433
    3c44:	6261                	lui	tp,0x18
    3c46:	0000                	unimp
    3c48:	7675                	lui	a2,0xffffd
    3c4a:	7261                	lui	tp,0xffff8
    3c4c:	3d20                	fld	fs0,120(a0)
    3c4e:	203d                	jal	3c7c <__modsi3+0x3e8>
    3c50:	7830                	flw	fa2,112(s0)
    3c52:	3231                	jal	355e <vsprintf+0x46>
    3c54:	64633433          	.4byte	0x64633433
    3c58:	6261                	lui	tp,0x18
    3c5a:	0000                	unimp
    3c5c:	7675                	lui	a2,0xffffd
    3c5e:	7261                	lui	tp,0xffff8
    3c60:	3d20                	fld	fs0,120(a0)
    3c62:	203d                	jal	3c90 <__modsi3+0x3fc>
    3c64:	7830                	flw	fa2,112(s0)
    3c66:	3231                	jal	3572 <vsnprintf+0x6>
    3c68:	6665                	lui	a2,0x19
    3c6a:	62616463          	bltu	sp,t1,4292 <ptr+0x592>
    3c6e:	0000                	unimp
    3c70:	7675                	lui	a2,0xffffd
    3c72:	7261                	lui	tp,0xffff8
    3c74:	3d20                	fld	fs0,120(a0)
    3c76:	203d                	jal	3ca4 <__modsi3+0x410>
    3c78:	7830                	flw	fa2,112(s0)
    3c7a:	3130                	fld	fa2,96(a0)
    3c7c:	6665                	lui	a2,0x19
    3c7e:	62616463          	bltu	sp,t1,42a6 <ptr+0x5a6>
    3c82:	0000                	unimp
    3c84:	3031                	jal	3490 <vbuf_printf+0x344>
    3c86:	202e                	fld	ft0,200(sp)
    3c88:	706d6f43          	fmadd.s	ft10,fs10,ft6,fa4,unknown
    3c8c:	7261                	lui	tp,0xffff8
    3c8e:	7369                	lui	t1,0xffffa
    3c90:	6f69                	lui	t5,0x1a
    3c92:	006e                	c.slli	zero,0x1b
    3c94:	202d                	jal	3cbe <__modsi3+0x42a>
    3c96:	6e49                	lui	t3,0x12
    3c98:	72726f63          	bltu	tp,t2,43d6 <ptr+0x6d6>
    3c9c:	6365                	lui	t1,0x19
    3c9e:	2074                	fld	fa3,192(s0)
    3ca0:	706d6f63          	bltu	s10,t1,43be <ptr+0x6be>
    3ca4:	7261                	lui	tp,0xffff8
    3ca6:	7369                	lui	t1,0xffffa
    3ca8:	6f69                	lui	t5,0x1a
    3caa:	006e                	c.slli	zero,0x1b
    3cac:	3130                	fld	fa2,96(a0)
    3cae:	3332                	fld	ft6,296(sp)
    3cb0:	3534                	fld	fa3,104(a0)
    3cb2:	3736                	fld	fa4,360(sp)
    3cb4:	3938                	fld	fa4,112(a0)
    3cb6:	4241                	li	tp,16
    3cb8:	46454443          	.4byte	0x46454443
    3cbc:	0000                	unimp
    3cbe:	0000                	unimp
    3cc0:	3130                	fld	fa2,96(a0)
    3cc2:	3332                	fld	ft6,296(sp)
    3cc4:	3534                	fld	fa3,104(a0)
    3cc6:	3736                	fld	fa4,360(sp)
    3cc8:	3938                	fld	fa4,112(a0)
    3cca:	6261                	lui	tp,0x18
    3ccc:	66656463          	bltu	a0,t1,4334 <ptr+0x634>
    3cd0:	0000                	unimp
	...
